(dp0
S'lelaki'
p1
I299
sS'mengajar'
p2
I984
sS'Van'
p3
I585
sS'Bellick'
p4
I348
sS'Sayang,'
p5
I975
sS'En'
p6
I922
sS'mengapa'
p7
I249
sS'jawapan'
p8
I716
sS'hidup?'
p9
I444
sS'pula?'
p10
I584
sS'maklumat'
p11
I112
sS'Tiga'
p12
I781
sS'EOS'
p13
I1
sS'Sampailah'
p14
I580
sS'tiba'
p15
I208
sS'Kertas'
p16
I814
sS'gembira'
p17
I265
sS'dipenjarakan'
p18
I582
sS'kata'
p19
I197
sS'Schmidt'
p20
I589
sS'Tahniah'
p21
I745
sS'Blackfoot,'
p22
I713
sS'terbaca'
p23
I1053
sS'Pfeiffer,'
p24
I576
sS'pasang'
p25
I732
sS'Dan'
p26
I38
sS'dipantau'
p27
I536
sS'tabung'
p28
I710
sS'berdebat'
p29
I757
sS'lori'
p30
I889
sS'janji'
p31
I431
sS'ialah'
p32
I46
sS'alang'
p33
I1063
sS'kanan'
p34
I409
sS'Samaran'
p35
I919
sS'situasi'
p36
I810
sS'pagi,'
p37
I1057
sS'apaapa'
p38
I105
sS'ingin'
p39
I300
sS'Avocado'
p40
I903
sS'Tabak?'
p41
I261
sS'membawa'
p42
I982
sS'bersama?'
p43
I481
sS'siapa'
p44
I736
sS'Boleh'
p45
I717
sS'tipu'
p46
I579
sS'menghidapi'
p47
I1050
sS'persekutuan'
p48
I477
sS'telefon'
p49
I381
sS'GATE'
p50
I370
sS'istimewa'
p51
I953
sS'Tak,'
p52
I592
sS'lari'
p53
I518
sS'Tiada'
p54
I114
sS'singgahsana'
p55
I506
sS'maafkan'
p56
I1042
sS'hati'
p57
I330
sS'Tweener'
p58
I1006
sS'bercakap?'
p59
I578
sS'tempat'
p60
I102
sS'mengkaji'
p61
I499
sS'911'
p62
I490
sS'ini,'
p63
I227
sS'dia'
p64
I13
sS'sependapat'
p65
I943
sS'perkara'
p66
I129
sS'kenapa?'
p67
I323
sS'kunci'
p68
I298
sS'bersalah?'
p69
I498
sS'sana'
p70
I319
sS'basuh'
p71
I501
sS'ini?'
p72
I53
sS'Tuan?'
p73
I594
sS'kesilapan'
p74
I423
sS'anak'
p75
I72
sS'Macam'
p76
I385
sS'Tak'
p77
I76
sS'Adakah'
p78
I150
sS'Rekaan'
p79
I404
sS'Apakah'
p80
I115
sS'Belum'
p81
I795
sS'Kellerman?'
p82
I1022
sS'Bukan,'
p83
I905
sS'aktifkan'
p84
I391
sS'najis'
p85
I893
sS'Michael?'
p86
I614
sS'lamalama'
p87
I372
sS'diberi'
p88
I723
sS'mencuri'
p89
I759
sS'ubah'
p90
I926
sS'saya'
p91
I4
sS'Kali'
p92
I747
sS'Tapi'
p93
I51
sS'seramai'
p94
I482
sS'6:15'
p95
I962
sS'dapat'
p96
I29
sS'yuran'
p97
I441
sS'berseorangan'
p98
I1039
sS'usia'
p99
I799
sS'tentu,'
p100
I347
sS'kehilangannya'
p101
I661
sS'Benar'
p102
I600
sS'minta'
p103
I758
sS'4'
p104
I999
sS'guna'
p105
I126
sS'Kembali'
p106
I399
sS'tanya'
p107
I136
sS'dengan'
p108
I19
sS'apakah'
p109
I738
sS'jangan'
p110
I269
sS'waran'
p111
I989
sS'pembeli'
p112
I608
sS'takkan'
p113
I152
sS'lihat'
p114
I448
sS'Helo?'
p115
I239
sS'Sebenarnya,'
p116
I529
sS'Scylla'
p117
I97
sS'mudah'
p118
I535
sS'kami'
p119
I39
sS'mula'
p120
I325
sS'7:00,'
p121
I681
sS'Tuang'
p122
I911
sS'keluar'
p123
I87
sS'bawah'
p124
I957
sS'kamu'
p125
I237
sS'sini'
p126
I42
sS'Hampir'
p127
I435
sS'Faham,'
p128
I552
sS'kemasukan'
p129
I878
sS'Kinte,'
p130
I639
sS'tugaskan'
p131
I800
sS'Presiden'
p132
I196
sS'Pfeiffer'
p133
I484
sS'Makkos,'
p134
I718
sS'bos'
p135
I186
sS'hilang'
p136
I191
sS'sebelumsebelum'
p137
I598
sS'dia?'
p138
I280
sS'tunduk!'
p139
I489
sS'teksi'
p140
I1010
sS'apaapa?'
p141
I177
sS'geng'
p142
I671
sS'penyelesaian'
p143
I336
sS'Tapi,'
p144
I517
sS'Betulkah?'
p145
I721
sS'perhatikan'
p146
I480
sS'jujur'
p147
I746
sS'masuk'
p148
I86
sS'45'
p149
I958
sS'bersihkan?'
p150
I865
sS'Siapa'
p151
I320
sS'Beritahu'
p152
I349
sS'Clearwater'
p153
I371
sS'Baik,'
p154
I171
sS'Jarum?'
p155
I750
sS'terbaik'
p156
I287
sS'apa'
p157
I23
sS'berjaya'
p158
I273
sS'hei!'
p159
I899
sS'Gretchen?'
p160
I605
sS'parkir'
p161
I1035
sS'hospital'
p162
I267
sS'anda'
p163
I617
sS'Sebab'
p164
I593
sS'mengaku?'
p165
I744
sS'Lebih'
p166
I301
sS'jelas'
p167
I860
sS'kepastian'
p168
I724
sS'tingkap'
p169
I455
sS'arahkan'
p170
I474
sS'tandas'
p171
I912
sS'berani'
p172
I743
sS'restoran'
p173
I601
sS'salahkannya'
p174
I768
sS'Divisyen'
p175
I368
sS'Masa'
p176
I184
sS'pengawal'
p177
I397
sS'ketahui'
p178
I540
sS'Burrows'
p179
I181
sS'jurutera'
p180
I840
sS'sampai?'
p181
I1031
sS'Wyatt'
p182
I395
sS'tapi'
p183
I41
sS'datang'
p184
I110
sS'kepada'
p185
I80
sS'berdiri'
p186
I1046
sS'malam'
p187
I57
sS'sebagai'
p188
I835
sS'sejauh'
p189
I685
sS'tuan'
p190
I172
sS'lewat'
p191
I805
sS'Pope'
p192
I960
sS'tidak?'
p193
I1009
sS'tugas'
p194
I312
sS'melibatkan'
p195
I332
sS'biar'
p196
I1020
sS'bersama'
p197
I178
sS'Dengar,'
p198
I556
sS'kenapa'
p199
I335
sS'teman'
p200
I462
sS'apa?'
p201
I331
sS'Ejen'
p202
I159
sS'Ini'
p203
I95
sS'kelmarin'
p204
I907
sS'bunuh'
p205
I71
sS'oleh'
p206
I322
sS'dikehendaki'
p207
I483
sS'pintu'
p208
I304
sS'wanita'
p209
I463
sS'lakukan'
p210
I65
sS'Sara'
p211
I94
sS'dapur,'
p212
I673
sS'penting'
p213
I596
sS'Pusing,'
p214
I510
sS'Polis'
p215
I555
sS'Lu'
p216
I871
sS'berlaku,'
p217
I819
sS'Timbalan'
p218
I351
sS'mungkin'
p219
I92
sS'menyeluruh'
p220
I588
sS'skirt'
p221
I502
sS'larikan'
p222
I256
sS'bersihkan'
p223
I914
sS'mengunci'
p224
I852
sS'lama'
p225
I167
sS'satu'
p226
I142
sS'belum'
p227
I70
sS'Ya'
p228
I109
sS'Sekarang'
p229
I59
sS'cuba'
p230
I106
sS'kata?'
p231
I359
sS'situ'
p232
I1015
sS'Tengok'
p233
I668
sS'Holtz'
p234
I522
sS'diuruskan'
p235
I773
sS'polis'
p236
I539
sS'terdesak'
p237
I447
sS'tak'
p238
I24
sS'kilang'
p239
I775
sS'kata,'
p240
I971
sS'Putih'
p241
I918
sS'baru,'
p242
I978
sS'angkatnya,'
p243
I1062
sS'lakukan,'
p244
I258
sS'syarikat'
p245
I706
sS'duduk'
p246
I151
sS'mereka'
p247
I78
sS'upacara'
p248
I837
sS'Negara'
p249
I433
sS'hebat'
p250
I217
sS'kuda'
p251
I894
sS'lakukan?'
p252
I379
sS'ambulans'
p253
I286
sS'Sekumpulan'
p254
I917
sS'arahan'
p255
I396
sS'mak'
p256
I797
sS'berada'
p257
I339
sS'data'
p258
I500
sS'atau'
p259
I119
sS'politik,'
p260
I870
sS'Mahu'
p261
I632
sS'Puan'
p262
I260
sS'Apa'
p263
I30
sS'sedih'
p264
I388
sS'Timurlaut?'
p265
I369
sS'Terutama'
p266
I1002
sS'sekali'
p267
I160
sS'balik'
p268
I170
sS'si'
p269
I963
sS'terbesar'
p270
I791
sS'mendapatkan'
p271
I675
sS'estet'
p272
I711
sS'tegas'
p273
I883
sS'Selamat'
p274
I946
sS'Benarkah?'
p275
I366
sS'tunggu'
p276
I210
sS'ikut'
p277
I147
sS'Peluang'
p278
I452
sS'banyak'
p279
I185
sS'nanti'
p280
I446
sS'Scotfiel'
p281
I634
sS'orang'
p282
I26
sS'membunuh'
p283
I806
sS'saya!'
p284
I1025
sS'bersedia'
p285
I438
sS'Scofield'
p286
I98
sS'Cukup,'
p287
I739
sS'White'
p288
I144
sS'itu'
p289
I14
sS'jenayah'
p290
I884
sS'saya,'
p291
I52
sS'24'
p292
I690
sS'berjumpa'
p293
I1051
sS'penjara'
p294
I166
sS'20'
p295
I1036
sS'Bagwell,'
p296
I574
sS'pertaruhkan'
p297
I924
sS'baik?'
p298
I862
sS'mencari'
p299
I700
sS'Kami'
p300
I90
sS'maklum'
p301
I1032
sS'selesaikan'
p302
I613
sS'mulamula'
p303
I282
sS'patut'
p304
I93
sS'Masih'
p305
I844
sS'menghormati'
p306
I624
sS'Jangan,'
p307
I487
sS'Rahsia'
p308
I526
sS'baiklah'
p309
I567
sS'prosedur'
p310
I541
sS'Maafkan'
p311
I234
sS'Kenapa,'
p312
I722
sS'dibiarkan'
p313
I657
sS'dan'
p314
I12
sS'terdapat'
p315
I779
sS'Michael'
p316
I96
sS'begitu,'
p317
I726
sS'Kenapa?'
p318
I562
sS'Hei'
p319
I604
sS'bebas'
p320
I453
sS'Caroline,'
p321
I731
sS'berusaha'
p322
I794
sS'begitu?'
p323
I308
sS'halaman'
p324
I315
sS'pernah'
p325
I140
sS'nama'
p326
I213
sS'proses'
p327
I587
sS'mengubahnya'
p328
I649
sS'berlaku'
p329
I149
sS'ini!'
p330
I853
sS'kaca'
p331
I763
sS'muka'
p332
I248
sS'untuk'
p333
I11
sS'inilah'
p334
I293
sS'cakap?'
p335
I342
sS'simpan'
p336
I405
sS'Tidak'
p337
I68
sS'pakai'
p338
I353
sS'surat'
p339
I667
sS'Belleck'
p340
I309
sS'terbang'
p341
I275
sS'tentu'
p342
I771
sS'Ayuh,'
p343
I218
sS'hari'
p344
I165
sS'disokong'
p345
I709
sS'cuma'
p346
I156
sS'Sedia'
p347
I955
sS'Tinggalkan'
p348
I858
sS'tahu,'
p349
I161
sS'bawa'
p350
I221
sS'teruk'
p351
I622
sS'Maksud'
p352
I193
sS'pasti?'
p353
I908
sS'paling'
p354
I289
sS'Caroline'
p355
I936
sS'Ambil'
p356
I720
sS'pertandingan'
p357
I868
sS'terperinci'
p358
I875
sS'sepatutnya'
p359
I655
sS'kena'
p360
I66
sS'Semestinya'
p361
I729
sS'Terima'
p362
I232
sS'lupa,'
p363
I531
sS'ketua,'
p364
I808
sS'Terdapat'
p365
I866
sS'perubahan'
p366
I1059
sS'kira'
p367
I818
sS'Tweener!'
p368
I798
sS'Bilik'
p369
I762
sS'berhatihati,'
p370
I545
sS'Buka'
p371
I900
sS'kami?'
p372
I951
sS'7'
p373
I326
sS'bekerja'
p374
I209
sS'lain'
p375
I676
sS'bincang'
p376
I318
sS'kerana'
p377
I135
sS'sampai'
p378
I199
sS'mati'
p379
I247
sS'pun'
p380
I471
sS'berjamjam'
p381
I682
sS'bertahan?'
p382
I514
sS'Mungkin'
p383
I127
sS'cari'
p384
I270
sS'Steadman'
p385
I712
sS'ada?'
p386
I1052
sS'Senator'
p387
I162
sS'diri'
p388
I79
sS'cara'
p389
I272
sS'keinginanNya'
p390
I897
sS'naik'
p391
I1019
sS'menandatangani'
p392
I988
sS'berubah,'
p393
I820
sS'keuntungan'
p394
I940
sS'Terlalu'
p395
I224
sS'begitu'
p396
I842
sS'Berikan'
p397
I279
sS'tengok'
p398
I201
sS'hentikan'
p399
I509
sS'jawatan'
p400
I414
sS'tahu'
p401
I20
sS'dalam'
p402
I21
sS'Hei,'
p403
I81
sS'Semua'
p404
I257
sS'gabenor'
p405
I879
sS'bahawa'
p406
I111
sS'Tolong'
p407
I252
sS'tersilap'
p408
I910
sS'Faham'
p409
I486
sS'Hei!'
p410
I827
sS'terbuka,'
p411
I680
sS'Tidak!'
p412
I956
sS'berbahaya'
p413
I434
sS'posisi'
p414
I985
sS'memujuk'
p415
I737
sS'segala'
p416
I334
sS'pergi'
p417
I32
sS'Sebaik'
p418
I207
sS'katanya'
p419
I631
sS'memerangkap'
p420
I754
sS'lupa'
p421
I760
sS'perjanjian,'
p422
I610
sS'Sedang'
p423
I793
sS'dibuat'
p424
I214
sS'berjalan'
p425
I278
sS'kapal'
p426
I672
sS'Nombor'
p427
I616
sS'pembalasan,'
p428
I492
sS'atas'
p429
I74
sS'besar?'
p430
I778
sS'semuanya'
p431
I131
sS'jambu'
p432
I1056
sS'persidangan'
p433
I377
sS'Abruzzi'
p434
I807
sS'Dadah?'
p435
I749
sS'mahu'
p436
I22
sS'harus'
p437
I259
sS'Miriam'
p438
I521
sS'Anak'
p439
I1048
sS'Bagwell'
p440
I255
sS'berpegang'
p441
I473
sS'2'
p442
I429
sS'kerja'
p443
I343
sS'John?'
p444
I650
sS'pertemuan'
p445
I547
sS'juga'
p446
I60
sS'setiap'
p447
I357
sS'senarai'
p448
I465
sS'seketika'
p449
I660
sS'dapatkan'
p450
I302
sS'maksud'
p451
I573
sS'tilam'
p452
I895
sS'akan'
p453
I6
sS'Lincoln'
p454
I134
sS'timbalan'
p455
I986
sS'Ke'
p456
I231
sS'Berapa'
p457
I364
sS'tempat,'
p458
I373
sS'Shelly,'
p459
I834
sS'bertemu'
p460
I375
sS'baju'
p461
I200
sS'berhasil'
p462
I313
sS'Ya,'
p463
I56
sS'alat'
p464
I816
sS'mempersoalkan'
p465
I896
sS'menyokong'
p466
I355
sS'melarat'
p467
I508
sS'Tentang'
p468
I424
sS'UNK'
p469
I2
sS'lahirkan'
p470
I1037
sS'10'
p471
I211
sS'minum'
p472
I599
sS'hanya'
p473
I974
sS'biarkan'
p474
I468
sS'perubahan,'
p475
I939
sS'tamat'
p476
I451
sS'beg'
p477
I566
sS'panggil'
p478
I356
sS'ia?'
p479
I703
sS'Scylla?'
p480
I430
sS'malam,'
p481
I678
sS'barubaru'
p482
I1018
sS'Burton'
p483
I554
sS'perubahan?'
p484
I983
sS'melalui'
p485
I653
sS'Rasanya'
p486
I139
sS'tampal'
p487
I832
sS'Christ'
p488
I1041
sS'titik'
p489
I698
sS'Peralatan'
p490
I902
sS'setengah'
p491
I586
sS'Dallow'
p492
I223
sS'tetamu'
p493
I561
sS'Perlukah'
p494
I568
sS'Ya?'
p495
I769
sS'Betul'
p496
I766
sS'88!'
p497
I901
sS'terkawal'
p498
I392
sS'Encik'
p499
I143
sS'duit'
p500
I226
sS'penerbangan'
p501
I784
sS'tempatan,'
p502
I527
sS'macam'
p503
I36
sS'penuh'
p504
I928
sS'psikologi'
p505
I916
sS'lif'
p506
I204
sS'sel'
p507
I646
sS'Jeneral'
p508
I402
sS'Di'
p509
I113
sS'Percaya'
p510
I390
sS'pasal'
p511
I338
sS'operasi'
p512
I543
sS'selamat,'
p513
I534
sS'nota'
p514
I643
sS'sebahagian'
p515
I337
sS'sahaja'
p516
I118
sS'Bagus'
p517
I290
sS'Nama'
p518
I212
sS'cepat,'
p519
I478
sS'bising'
p520
I930
sS'Gembira'
p521
I374
sS'sendiri'
p522
I244
sS'kebetulan'
p523
I740
sS'keluarkan'
p524
I183
sS'lainlain'
p525
I458
sS'cantik,'
p526
I964
sS'didedahkan,'
p527
I530
sS'Bertenang'
p528
I382
sS'The'
p529
I120
sS'Selagi'
p530
I472
sS'tinggi'
p531
I756
sS'dahulu'
p532
I495
sS'fikir'
p533
I145
sS'moral'
p534
I991
sS'ke'
p535
I82
sS'Pastikan'
p536
I550
sS'lagi?'
p537
I283
sS'senapang'
p538
I1013
sS'Radio'
p539
I1033
sS'Pop'
p540
I694
sS'suruh'
p541
I153
sS'yang'
p542
I5
sS'pegang'
p543
I626
sS'berjudi'
p544
I923
sS'membelot'
p545
I533
sS'Itu'
p546
I62
sS'terjun'
p547
I454
sS'luar,'
p548
I1026
sS'doktor'
p549
I494
sS'kita'
p550
I17
sS'Kena'
p551
I770
sS'tukar'
p552
I542
sS'manamana'
p553
I470
sS'membuat'
p554
I941
sS'telah'
p555
I25
sS'dail'
p556
I618
sS'Sebenarnya'
p557
I934
sS'berdasarkan'
p558
I702
sS'pandang'
p559
I767
sS'berita'
p560
I179
sS'PAD'
p561
I0
sS'kemalangan'
p562
I696
sS'lalui'
p563
I493
sS'Jangan'
p564
I64
sS'baik'
p565
I88
sS'akhir'
p566
I954
sS'cakap'
p567
I45
sS'Kalau'
p568
I83
sS'Seluruh'
p569
I847
sS'keadaan'
p570
I505
sS'Semoga'
p571
I549
sS'rasa'
p572
I85
sS'Theodore'
p573
I173
sS'boleh'
p574
I15
sS'Keluar'
p575
I815
sS'hari,'
p576
I362
sS'perlu'
p577
I47
sS'jam'
p578
I122
sS'manamana?'
p579
I796
sS'lubang'
p580
I311
sS'bukan?'
p581
I202
sS'8'
p582
I780
sS'Adik'
p583
I692
sS'Atau'
p584
I973
sS'keputusan'
p585
I416
sS'Tengok,'
p586
I811
sS'penamatnya'
p587
I436
sS'terima'
p588
I1001
sS'di'
p589
I16
sS'terjadi'
p590
I449
sS'saya?'
p591
I117
sS'silap'
p592
I281
sS'keemasan'
p593
I1058
sS'konvoi'
p594
I285
sS'luka'
p595
I833
sS'buat?'
p596
I345
sS'sebelum'
p597
I263
sS'Kunci'
p598
I628
sS'Dallow?'
p599
I606
sS'pelarian'
p600
I839
sS'River'
p601
I980
sS'itu,'
p602
I108
sS'Seorang'
p603
I629
sS'bau'
p604
I640
sS'cepat'
p605
I189
sS'dapur'
p606
I913
sS'Linc'
p607
I306
sS'Scylla,'
p608
I607
sS'bangsal'
p609
I831
sS'Sebentar'
p610
I1029
sS'itu?'
p611
I35
sS'terlibat'
p612
I695
sS'kad?'
p613
I387
sS'buat'
p614
I34
sS'hampir'
p615
I714
sS'abang'
p616
I920
sS'awal'
p617
I874
sS'kereta'
p618
I432
sS'tiada'
p619
I55
sS'Rantai'
p620
I851
sS'pada'
p621
I49
sS'pagar'
p622
I679
sS'baru'
p623
I271
sS'tamatkan'
p624
I427
sS'jadi'
p625
I288
sS'kematiannya?'
p626
I990
sS'lama?'
p627
I776
sS'menyumbang'
p628
I882
sS'DMV'
p629
I528
sS'fail'
p630
I572
sS'White,'
p631
I512
sS'John'
p632
I277
sS'Pn'
p633
I363
sS'suatu'
p634
I445
sS'penjara?'
p635
I997
sS'komplikasi'
p636
I812
sS'rumah'
p637
I164
sS'sebaik'
p638
I439
sS'Bellick?'
p639
I194
sS'3'
p640
I190
sS'bersumpah,'
p641
I425
sS'sedang'
p642
I116
sS'awak'
p643
I3
sS'pistol'
p644
I148
sS'mengawal'
p645
I809
sS'nombor'
p646
I295
sS'tembak'
p647
I564
sS'kotak'
p648
I654
sS'sehingga'
p649
I329
sS'merosakkan'
p650
I645
sS'mengambilnya?'
p651
I1064
sS'merentasi'
p652
I557
sS'Florida'
p653
I367
sS'membaca'
p654
I666
sS'pastikan'
p655
I821
sS'lindungi'
p656
I419
sS'huruhara'
p657
I788
sS'tua'
p658
I532
sS'bermasalah'
p659
I938
sS'kes'
p660
I753
sS'FBI'
p661
I524
sS'kali?'
p662
I1000
sS'berapa'
p663
I669
sS'partinya'
p664
I877
sS'gelap'
p665
I662
sS'memang'
p666
I158
sS'Dipaksa'
p667
I491
sS'tukarkan'
p668
I727
sS'berubah'
p669
I464
sS'semalam'
p670
I804
sS'berikan'
p671
I225
sS'lupakan'
p672
I976
sS'teruskan'
p673
I443
sS'Company'
p674
I157
sS'bukti'
p675
I977
sS'meja'
p676
I206
sS'sini?'
p677
I612
sS'bukannya'
p678
I1012
sS'realiti,'
p679
I994
sS'awak?'
p680
I73
sS'tahun'
p681
I670
sS'60'
p682
I684
sS'penaja'
p683
I836
sS'gadis'
p684
I787
sS'Cara'
p685
I1007
sS'awak,'
p686
I123
sS'ditutup'
p687
I310
sS'ayah'
p688
I61
sS'Scofield,'
p689
I324
sS'semula'
p690
I728
sS'akan,'
p691
I825
sS'mustahil'
p692
I476
sS'dua'
p693
I1045
sS'daripada'
p694
I75
sS'panggilan'
p695
I376
sS'mari'
p696
I426
sS'kawankawan'
p697
I466
sS'Langung'
p698
I389
sS'TBag'
p699
I803
sS'Untuk'
p700
I961
sS'Periksa'
p701
I403
sS'perlukannya'
p702
I627
sS'Malam'
p703
I138
sS'komputer'
p704
I569
sS'Jauhi'
p705
I230
sS'Gen'
p706
I693
sS'kalau'
p707
I58
sS'berlepas'
p708
I276
sS'bermula'
p709
I664
sS'Oval'
p710
I886
sS'tembakkah?'
p711
I563
sS'betul?'
p712
I192
sS'disebabkan'
p713
I637
sS'Tugas'
p714
I891
sS'anggap'
p715
I972
sS'melancarkan'
p716
I838
sS'cadar,'
p717
I648
sS'Bukan'
p718
I719
sS'2,'
p719
I559
sS'takut'
p720
I292
sS'lebih'
p721
I50
sS'menjumpainya'
p722
I307
sS'Tunggu'
p723
I548
sS'berharga'
p724
I467
sS'Terminal'
p725
I558
sS'pergi?'
p726
I238
sS'bisnes,'
p727
I861
sS'bila'
p728
I268
sS'bagaimana'
p729
I705
sS'terlalu'
p730
I1040
sS'negara'
p731
I417
sS'peroksida'
p732
I327
sS'peralatan'
p733
I830
sS'nahaslah'
p734
I850
sS'pergi,'
p735
I635
sS'Fibonacci'
p736
I1044
sS'beritahu'
p737
I37
sS'Anehnya'
p738
I1061
sS'Gibsons'
p739
I715
sS'Cole'
p740
I174
sS'Richard!'
p741
I948
sS'Tahan'
p742
I401
sS'dicuci,'
p743
I503
sS'Terrence'
p744
I296
sS'berlainan'
p745
I944
sS'Bagus,'
p746
I652
sS'sahaja,'
p747
I507
sS'peluang'
p748
I633
sS'cadangkan'
p749
I459
sS'Sudah'
p750
I921
sS'dinding'
p751
I1047
sS'tahniah'
p752
I968
sS'berpeluang'
p753
I813
sS'lambat'
p754
I361
sS'sahaja?'
p755
I513
sS'ia'
p756
I89
sS'Khas'
p757
I520
sS'nampak'
p758
I133
sS'dia!'
p759
I461
sS'alamat'
p760
I701
sS'menangkap?'
p761
I859
sS'Akan'
p762
I772
sS'klinik'
p763
I305
sS'penyelenggaran'
p764
I630
sS'Duduk'
p765
I383
sS'mana'
p766
I33
sS'sedikit'
p767
I176
sS'Mulamulanya'
p768
I765
sS'sama'
p769
I121
sS'melakukan'
p770
I1038
sS'uruskan'
p771
I340
sS'sedia'
p772
I303
sS'mencukupi'
p773
I855
sS'mempunyai'
p774
I413
sS'mengendalikan'
p775
I699
sS'Dapatkan'
p776
I674
sS'belakang'
p777
I180
sS'Jumpa'
p778
I546
sS'bagi'
p779
I1043
sS'ingat'
p780
I1023
sS'minit'
p781
I154
sS'Sebuah'
p782
I888
sS'kedua?'
p783
I748
sS'jantina'
p784
I945
sS'dah'
p785
I570
sS'tamat!'
p786
I687
sS'Ianya'
p787
I245
sS'kembali'
p788
I222
sS'kisah,'
p789
I741
sS'hilangkan'
p790
I677
sS'berdekatan'
p791
I560
sS'Nancy'
p792
I350
sS'Buat'
p793
I333
sS'mengugut'
p794
I730
sS'keutamaan'
p795
I553
sS'Tidak,'
p796
I107
sS'Wartawan'
p797
I869
sS'Oleh'
p798
I457
sS'disebut'
p799
I412
sS'macamlah'
p800
I789
sS'Perbezaannya'
p801
I735
sS'berjaya,'
p802
I597
sS'lepaskan'
p803
I625
sS'Cuma'
p804
I262
sS'jalan'
p805
I792
sS'Illinois,'
p806
I880
sS'Waktu'
p807
I686
sS'khususnya'
p808
I935
sS'permintaan'
p809
I942
sS'Saya'
p810
I8
sS'Membesarlah'
p811
I1004
sS'terakhir'
p812
I168
sS'selamalamanya'
p813
I857
sS'Lisa'
p814
I511
sS'Khidmat'
p815
I525
sS'bantuan'
p816
I751
sS'Satu'
p817
I317
sS'struktur'
p818
I841
sS'penagih'
p819
I992
sS'sangat'
p820
I264
sS'kali'
p821
I125
sS'Sara?'
p822
I995
sS'lakukannya'
p823
I437
sS'menahan'
p824
I1016
sS'buka'
p825
I479
sS'ejen'
p826
I250
sS'barisan'
p827
I688
sS'sekadar'
p828
I969
sS'selamat'
p829
I266
sS'betul'
p830
I644
sS'faham'
p831
I621
sS'Baru'
p832
I848
sS'mana?'
p833
I544
sS'terkurung'
p834
I856
sS'Mereka'
p835
I44
sS'terhutang'
p836
I824
sS'perlukan'
p837
I100
sS'akhirnya'
p838
I734
sS'rancangan'
p839
I128
sS'tandas?'
p840
I915
sS'sejam'
p841
I1011
sS'mahukan?'
p842
I440
sS'mana,'
p843
I704
sS'ada'
p844
I18
sS'berdua'
p845
I253
sS'pesisir'
p846
I708
sS'Ruparupanya'
p847
I638
sS'diawasi'
p848
I689
sS'fikiran?'
p849
I927
sS'sendiri,'
p850
I752
sS'Siapa?'
p851
I801
sS'bil'
p852
I354
sS'Tuhan'
p853
I892
sS'masanya'
p854
I581
sS'Cepat'
p855
I316
sS'kosong'
p856
I970
sS'Kenapa'
p857
I254
sS'sekarang'
p858
I132
sS'diacu'
p859
I456
sS'Dia'
p860
I54
sS'laporan'
p861
I867
sS'bayangkan'
p862
I1060
sS'dari'
p863
I28
sS'masih'
p864
I215
sS'Bantal,'
p865
I647
sS'daerah'
p866
I344
sS'kebenaran'
p867
I420
sS'isteri'
p868
I949
sS'Kita'
p869
I31
sS'menculik'
p870
I485
sS'sangka'
p871
I163
sS'Pandang'
p872
I1024
sS'hidup'
p873
I187
sS'Banyak'
p874
I636
sS'terbabas'
p875
I890
sS'titisan'
p876
I828
sS'Steadman?'
p877
I1021
sS'mengubah'
p878
I981
sS'hei,'
p879
I898
sS'bukan'
p880
I77
sS'jika'
p881
I229
sS'pagi'
p882
I1030
sS'pilihan'
p883
I959
sS'Laci'
p884
I407
sS'banduan'
p885
I182
sS'Baik'
p886
I40
sS'Apabila'
p887
I198
sS'lepas'
p888
I219
sS'rawatan'
p889
I591
sS'awasi'
p890
I523
sS'Seperti'
p891
I284
sS'perlulah'
p892
I595
sS'Semuanya'
p893
I205
sS'baca'
p894
I571
sS'khinzir'
p895
I929
sS'sesuatu'
p896
I103
sS'Mari'
p897
I146
sS'segalanya'
p898
I188
sS'cukup'
p899
I656
sS'pencuci?'
p900
I864
sS'sebelah'
p901
I408
sS'MP5'
p902
I515
sS'trak'
p903
I538
sS'rumahnya'
p904
I1028
sS'Sesetengah'
p905
I933
sS'tolong'
p906
I235
sS'kasih'
p907
I233
sS'semua'
p908
I27
sS'mendahului'
p909
I683
sS'dekat'
p910
I782
sS'lima'
p911
I386
sS'orang,'
p912
I488
sS'lapangan'
p913
I274
sS'sebentar'
p914
I966
sS'saat'
p915
I341
sS'kisah'
p916
I469
sS'sudah'
p917
I43
sS'walaupun'
p918
I360
sS'pesawat'
p919
I551
sS'Montana'
p920
I321
sS'mampu'
p921
I565
sS'tercedera'
p922
I384
sS'Melarikan'
p923
I663
sS'percaya'
p924
I294
sS'pegangan'
p925
I707
sS'hilang?'
p926
I658
sS'asap'
p927
I1014
sS'bangun'
p928
I725
sS'pasti'
p929
I69
sS'Apa?'
p930
I195
sS'PI'
p931
I817
sS'Presiden,'
p932
I872
sS'jumpa'
p933
I67
sS'plat'
p934
I537
sS'tidak'
p935
I10
sS'luar'
p936
I155
sS'hantar'
p937
I642
sS'Jadi'
p938
I99
sS'beberapa'
p939
I845
sS'kurang'
p940
I620
sS'Telefon'
p941
I242
sS'semuanya?'
p942
I442
sS'Self'
p943
I615
sS'acu'
p944
I497
sS'darah'
p945
I829
sS'merah'
p946
I1055
sS'tepi'
p947
I764
sS'berlaku?'
p948
I328
sS'lahir'
p949
I418
sS'Kata'
p950
I904
sS'pejabat'
p951
I203
sS'peribadi'
p952
I1008
sS'Mack'
p953
I1034
sS'Taj'
p954
I1054
sS'lain?'
p955
I609
sS'perasan'
p956
I659
sS'masalah'
p957
I104
sS'makan'
p958
I314
sS'Ada'
p959
I697
sS'Awak'
p960
I7
sS'Baiklah'
p961
I251
sS'besar'
p962
I137
sS'tinggal'
p963
I947
sS'pengampunan'
p964
I885
sS'melainkan'
p965
I641
sS'sokong'
p966
I932
sS'ulangtahun'
p967
I346
sS'van'
p968
I590
sS'sampah'
p969
I996
sS'ditangkap'
p970
I246
sS'soalan,'
p971
I777
sS'faham?'
p972
I220
sS'wad'
p973
I352
sS'laporan?'
p974
I406
sS'bernama'
p975
I415
sS'mengucap'
p976
I967
sS'surut'
p977
I733
sS'lagi'
p978
I48
sS'budi'
p979
I846
sS'pencalonan'
p980
I876
sS'berakhir'
p981
I400
sS'Selendang'
p982
I952
sS'dulu'
p983
I228
sS'ramai'
p984
I843
sS'budak'
p985
I1005
sS'dengar'
p986
I124
sS'kali,'
p987
I998
sS'pencuri'
p988
I993
sS'punggung'
p989
I790
sS'beri'
p990
I84
sS'kekurangan'
p991
I931
sS'penduduk?'
p992
I1017
sS'Tunduk'
p993
I378
sS'Lelaki'
p994
I460
sS'saja'
p995
I101
sS'Office'
p996
I887
sS'Itulah'
p997
I651
sS'Reynold'
p998
I873
sS'pula'
p999
I175
sS'menjadi'
p1000
I297
sS'adalah'
p1001
I906
sS'Tolonglah'
p1002
I241
sS'cip'
p1003
I925
sS'Jawab'
p1004
I979
sS'politik'
p1005
I937
sS'tentang'
p1006
I63
sS'Tancredi'
p1007
I240
sS'segera'
p1008
I358
sS'puan'
p1009
I504
sS'Ayah'
p1010
I421
sS'seorang'
p1011
I130
sS'presiden'
p1012
I987
sS'Michael,'
p1013
I169
sS'bermaksud'
p1014
I823
sS'pesalah?'
p1015
I575
sS'Pergi'
p1016
I854
sS'Pusing'
p1017
I519
sS'benda'
p1018
I365
sS'Minta'
p1019
I965
sS'Self?'
p1020
I428
sS'bimbang'
p1021
I236
sS'Sekarang,'
p1022
I623
sS'ini'
p1023
I9
sS'minat'
p1024
I411
sS'ianya'
p1025
I1003
sS'menjumpai'
p1026
I665
sS'tewaskan'
p1027
I422
sS'selamatkan'
p1028
I496
sS'berehat'
p1029
I603
sS'bangunan'
p1030
I398
sS'pandai'
p1031
I577
sS'nak'
p1032
I291
sS'keselamatan'
p1033
I755
sS'apabila'
p1034
I141
sS'senang'
p1035
I909
sS'terkejut'
p1036
I849
sS'ada,'
p1037
I863
sS'seterusnya'
p1038
I785
sS'mereka?'
p1039
I243
sS'sediakan'
p1040
I786
sS'keluarkannya'
p1041
I691
sS'Blackfoot'
p1042
I783
sS'Fikir'
p1043
I802
sS'dialihkan'
p1044
I475
sS'Pertimbangannya'
p1045
I881
sS'Agak'
p1046
I393
sS'menarik'
p1047
I410
sS'Jika'
p1048
I583
sS'beredar'
p1049
I761
sS'terlepas'
p1050
I822
sS'melarikan'
p1051
I602
sS'kenal'
p1052
I516
sS'bagus'
p1053
I394
sS'sempena'
p1054
I950
sS'Letak'
p1055
I380
sS'kesemuanya'
p1056
I742
sS'masa'
p1057
I91
sS'Cuba'
p1058
I1027
sS'risau,'
p1059
I826
sS'Van?'
p1060
I774
sS'Company?'
p1061
I216
sS'Biar'
p1062
I450
sS'Paling'
p1063
I619
sS'ketika'
p1064
I611
sS'perempuan'
p1065
I1049
s.