(dp0
S'Linc,'
p1
I623
sS'lelaki'
p2
I221
sS'simpati'
p3
I402
sS'menguruskan'
p4
I708
sS'sayangi,'
p5
I678
sS'mengapa'
p6
I437
sS'pula?'
p7
I389
sS'telefon'
p8
I167
sS'Tiga'
p9
I426
sS'EOS'
p10
I1
sS'Perlu'
p11
I489
sS'Linc?'
p12
I384
sS'mengurangkan'
p13
I807
sS'kertas?'
p14
I480
sS'mengelak'
p15
I753
sS'Pistachio'
p16
I582
sS'Ladriya'
p17
I874
sS'sejak'
p18
I162
sS'orangorang'
p19
I310
sS'turun'
p20
I349
sS'matikah?'
p21
I534
sS'terpulang'
p22
I632
sS'Dan'
p23
I42
sS'sibuk'
p24
I937
sS'Tepi!'
p25
I892
sS'teliti'
p26
I1012
sS'manamana'
p27
I609
sS'janji'
p28
I741
sS'berang'
p29
I488
sS'aku?'
p30
I795
sS'depan,'
p31
I543
sS'manis'
p32
I743
sS'maksudkan'
p33
I391
sS'dinilai'
p34
I995
sS'apaapa'
p35
I93
sS'Biarkan'
p36
I394
sS'ingin'
p37
I343
sS'membawa'
p38
I313
sS'siapa'
p39
I103
sS'pulihkan'
p40
I876
sS'Nampaknya'
p41
I531
sS'lain'
p42
I594
sS'tersebut'
p43
I277
sS'kesetiaan'
p44
I752
sS'penetapan'
p45
I228
sS'istimewa'
p46
I515
sS'Tak,'
p47
I916
sS'Tiada'
p48
I109
sS'petunjuk'
p49
I578
sS'hati'
p50
I852
sS'Sekejap'
p51
I385
sS'rambut'
p52
I237
sS'meminta'
p53
I123
sS'tempat'
p54
I81
sS'memutuskan'
p55
I777
sS'ini,'
p56
I269
sS'semakin'
p57
I283
sS'tercabut?'
p58
I536
sS'dia'
p59
I10
sS'seseorang'
p60
I50
sS'perkara'
p61
I190
sS'ajaib'
p62
I976
sS'pejuangan'
p63
I625
sS'sana'
p64
I59
sS'ini?'
p65
I52
sS'mati'
p66
I842
sS'anak'
p67
I648
sS'mahu'
p68
I21
sS'Hinggalah'
p69
I731
sS'galas'
p70
I374
sS'saya'
p71
I3
sS'naik'
p72
I487
sS'Tapi'
p73
I196
sS'Lukakan'
p74
I633
sS'dapat'
p75
I35
sS'persamaan'
p76
I308
sS'gunting'
p77
I170
sS'meniduri'
p78
I503
sS'Benar'
p79
I251
sS'minta'
p80
I564
sS'teman'
p81
I512
sS'dengar'
p82
I813
sS'dengan'
p83
I13
sS'tembakan'
p84
I831
sS'bercakap'
p85
I117
sS'soalan'
p86
I727
sS'Linc'
p87
I118
sS'bilakah'
p88
I518
sS'Ini'
p89
I46
sS'Helo?'
p90
I256
sS'hingga'
p91
I620
sS'cintakan'
p92
I622
sS'ditugaskan'
p93
I538
sS'mudah'
p94
I278
sS'usahakannya'
p95
I610
sS'kami'
p96
I284
sS'Killian'
p97
I920
sS'adakah'
p98
I781
sS'keluar'
p99
I44
sS'bawah'
p100
I238
sS'bayangbayang'
p101
I922
sS'sini'
p102
I29
sS'Fikiran'
p103
I925
sS'dihadapkan'
p104
I547
sS'perangkap'
p105
I945
sS'analisis'
p106
I810
sS'dia,'
p107
I223
sS'membohongi'
p108
I478
sS'saintis'
p109
I864
sS'Penciptaan'
p110
I803
sS'berlindung'
p111
I377
sS'akhbar'
p112
I418
sS'letupan'
p113
I992
sS'30'
p114
I570
sS'bot'
p115
I553
sS'aku'
p116
I25
sS'rupanya'
p117
I747
sS'dia?'
p118
I323
sS'tahun'
p119
I181
sS'negara'
p120
I905
sS'apaapa?'
p121
I178
sS'milik'
p122
I514
sS'Bila?'
p123
I688
sS'jalan'
p124
I265
sS'berapa'
p125
I900
sS'Scofield?'
p126
I474
sS'Sona,'
p127
I217
sS'perhatikan'
p128
I298
sS'kebal'
p129
I1004
sS'masuk'
p130
I131
sS'Siapa'
p131
I127
sS'banduan'
p132
I557
sS'pihak'
p133
I191
sS'sesuatu'
p134
I101
sS'apa'
p135
I28
sS'Jadi?'
p136
I624
sS'berjaya'
p137
I107
sS'Rita'
p138
I420
sS'agak'
p139
I769
sS'Australia'
p140
I664
sS'perlu'
p141
I23
sS'berhubung'
p142
I982
sS'Mustahil'
p143
I457
sS'berpeluang'
p144
I436
sS'nampaknya'
p145
I156
sS'Sebab'
p146
I260
sS'dalamnya'
p147
I376
sS'Kecilnya'
p148
I297
sS'Lebih'
p149
I172
sS'jelas'
p150
I603
sS'Pandang'
p151
I468
sS'adalah'
p152
I174
sS'tingkat'
p153
I825
sS'barulah'
p154
I888
sS'Sekarang,'
p155
I812
sS'Bagaimana'
p156
I38
sS'hendak'
p157
I62
sS'Beg'
p158
I373
sS'Untuk'
p159
I657
sS'terpaksa'
p160
I660
sS'dilepaskan'
p161
I316
sS'kasihan'
p162
I449
sS'En'
p163
I274
sS'kepada'
p164
I71
sS'robotnya'
p165
I867
sS'malam'
p166
I291
sS'Whister'
p167
I450
sS'Melainkan'
p168
I516
sS'Lechero!"'
p169
I762
sS'pelabuhan'
p170
I906
sS'Setengah'
p171
I569
sS'perbualanperbualan'
p172
I611
sS'bersama'
p173
I798
sS'Atau'
p174
I236
sS'Dengar,'
p175
I640
sS'caj'
p176
I490
sS'ubat'
p177
I280
sS'Kuze'
p178
I341
sS'lihat'
p179
I189
sS'Jun?'
p180
I541
sS'peguambela'
p181
I537
sS'imbasan'
p182
I335
sS'tidak,'
p183
I878
sS'bunuh'
p184
I115
sS'oleh'
p185
I149
sS'berat'
p186
I775
sS'kesilapan,'
p187
I270
sS'wang'
p188
I155
sS'seluruh'
p189
I924
sS'wanita'
p190
I513
sS'lakukan'
p191
I90
sS'Sara'
p192
I78
sS'citarasa'
p193
I506
sS'penting'
p194
I477
sS'mungkin'
p195
I135
sS'memenuhi'
p196
I740
sS'pesaing'
p197
I834
sS'bandar'
p198
I577
sS'Pasifik'
p199
I707
sS'mendapat'
p200
I241
sS'sajalah'
p201
I562
sS'tak'
p202
I20
sS'Benar,'
p203
I380
sS'sampel'
p204
I718
sS'lama'
p205
I147
sS'satu'
p206
I140
sS'"Barangbarang"'
p207
I458
sS'Ya'
p208
I111
sS'maklumat'
p209
I858
sS'cuba'
p210
I137
sS'manusia'
p211
I82
sS'Kau'
p212
I31
sS'polis'
p213
I668
sS'tenaganya'
p214
I854
sS'sepenuhnya'
p215
I857
sS'berbincang'
p216
I860
sS'cakapkan'
p217
I395
sS'"Patron"'
p218
I496
sS'permainan'
p219
I602
sS'bawa'
p220
I114
sS'Pihak'
p221
I438
sS'mendedahkan'
p222
I949
sS'mereka'
p223
I24
sS'sebenarnya'
p224
I476
sS'dirinya'
p225
I946
sS'Dialah'
p226
I702
sS'Aku'
p227
I36
sS'kami?'
p228
I314
sS'risau'
p229
I889
sS'buat?'
p230
I371
sS'datang'
p231
I218
sS'adik'
p232
I209
sS'data'
p233
I333
sS'kecil'
p234
I222
sS'kitarannya,'
p235
I529
sS'belum'
p236
I574
sS'panduan'
p237
I409
sS'terdengar'
p238
I759
sS'jelas?'
p239
I358
sS'berkurang'
p240
I855
sS'robot'
p241
I836
sS'Deep'
p242
I351
sS'faham?'
p243
I618
sS'tulis'
p244
I654
sS'bahasa'
p245
I818
sS'media'
p246
I671
sS'berpurapura'
p247
I605
sS'Selamat'
p248
I595
sS'siapa!'
p249
I647
sS'mengarut'
p250
I757
sS'melaporkan'
p251
I768
sS'diganggu'
p252
I315
sS'berseronok?'
p253
I656
sS'banyak'
p254
I85
sS'nanti'
p255
I134
sS'Tebu'
p256
I742
sS'orang'
p257
I54
sS'Menangkap'
p258
I710
sS'wajah'
p259
I763
sS'Scofield'
p260
I182
sS'itu'
p261
I14
sS'Tolong,'
p262
I344
sS'jalankan'
p263
I206
sS'membebaskan'
p264
I698
sS'25'
p265
I576
sS'penjara'
p266
I210
sS'ditinggalkan'
p267
I872
sS'20'
p268
I421
sS'lokasi'
p269
I737
sS'baik?'
p270
I545
sS'mencari'
p271
I249
sS'merebut'
p272
I387
sS'Kami'
p273
I179
sS'Bersenjata'
p274
I961
sS'buat,'
p275
I936
sS'hakim'
p276
I549
sS'menuju'
p277
I988
sS'saja?'
p278
I691
sS'nelayan'
p279
I153
sS'Maafkan'
p280
I242
sS'keberatan,'
p281
I751
sS'Gabriel!'
p282
I897
sS'selalu'
p283
I909
sS'mesej'
p284
I871
sS'ya'
p285
I479
sS'antara'
p286
I146
sS'dan'
p287
I12
sS'pisau'
p288
I643
sS'Michael'
p289
I234
sS'begitu,'
p290
I400
sS'Bertukar'
p291
I586
sS'"senor"'
p292
I685
sS'juga?'
p293
I505
sS'bebas'
p294
I451
sS'lanjut'
p295
I776
sS'makanan'
p296
I508
sS'kesunyian'
p297
I1009
sS'diubahsuai'
p298
I148
sS'pernah'
p299
I77
sS'nama'
p300
I411
sS'cakap,'
p301
I985
sS'tenggelam'
p302
I324
sS'opera'
p303
I837
sS'berlaku'
p304
I914
sS'risiko'
p305
I829
sS'Buku'
p306
I408
sS'batu'
p307
I422
sS'untuk'
p308
I17
sS'angkat?'
p309
I1010
sS'Tidak'
p310
I45
sS'$50'
p311
I372
sS'sesuatu,'
p312
I233
sS'penghibur'
p313
I746
sS'bantu'
p314
I120
sS'tentu'
p315
I645
sS'tahu?'
p316
I673
sS'kau?'
p317
I903
sS'hari'
p318
I53
sS'dituduh'
p319
I773
sS'kecewa'
p320
I1003
sS'apa?'
p321
I851
sS'pakaian'
p322
I492
sS'cuma'
p323
I64
sS'dengar?'
p324
I979
sS'Awak'
p325
I9
sS'Maksud'
p326
I262
sS'pasti?'
p327
I890
sS'benda'
p328
I258
sS'mengganggu'
p329
I830
sS'berseronok'
p330
I974
sS'bodoh'
p331
I388
sS'membantu'
p332
I248
sS'Apapun,'
p333
I396
sS'sepatutnya'
p334
I482
sS'seperti'
p335
I70
sS'Terima'
p336
I338
sS'penghujung'
p337
I772
sS'bergantung'
p338
I675
sS'sidang'
p339
I670
sS'Mira'
p340
I195
sS'Tapi,'
p341
I853
sS'bekerja'
p342
I355
sS'pun?'
p343
I432
sS'kerana'
p344
I145
sS'sampai'
p345
I690
sS'kesilapan'
p346
I357
sS'semasa'
p347
I904
sS'pun'
p348
I129
sS'Mary'
p349
I919
sS'jenis'
p350
I983
sS'memberi'
p351
I290
sS'tenang'
p352
I910
sS'buang'
p353
I917
sS'Mungkin'
p354
I102
sS'cari'
p355
I193
sS'Maaf,'
p356
I748
sS'marah'
p357
I522
sS'dalaman'
p358
I911
sS'rupanya?'
p359
I472
sS'diri'
p360
I128
sS'cara'
p361
I208
sS'dikembalikan'
p362
I572
sS'teknologi'
p363
I849
sS'Menari!'
p364
I986
sS'tentulah'
p365
I211
sS'menggunakannya'
p366
I455
sS'Kawan'
p367
I307
sS'kenapa'
p368
I676
sS'keizinan'
p369
I957
sS'Ladriya,'
p370
I981
sS'bersusahpayah'
p371
I695
sS'tahu'
p372
I16
sS'Supaya'
p373
I967
sS'suruh'
p374
I473
sS'Hei,'
p375
I185
sS'kerajaan'
p376
I231
sS'Apa'
p377
I34
sS'Hei!'
p378
I639
sS'rasa,'
p379
I330
sS'letak'
p380
I696
sS'suarasuara'
p381
I760
sS'Dua'
p382
I337
sS'fahamkan'
p383
I510
sS'pergi'
p384
I832
sS'perjuangan'
p385
I616
sS'Mulakan'
p386
I839
sS'memerangkap'
p387
I551
sS'depan'
p388
I548
sS'datang,'
p389
I596
sS'dibuat'
p390
I723
sS'kelihatan'
p391
I293
sS'berjalan'
p392
I282
sS'ditahan,'
p393
I703
sS'Nombor'
p394
I226
sS'carter'
p395
I709
sS'harapkan'
p396
I786
sS'Memanglah'
p397
I964
sS'berada'
p398
I47
sS'berbeza'
p399
I846
sS'capai'
p400
I499
sS'Melancong'
p401
I712
sS'Dive'
p402
I352
sS'kod'
p403
I350
sS'berasa'
p404
I965
sS'kerja'
p405
I354
sS'bukannya'
p406
I122
sS'ambilkan'
p407
I491
sS'juga'
p408
I143
sS'Raul'
p409
I560
sS'Undurkan'
p410
I567
sS'berurusniaga'
p411
I439
sS'Mahu'
p412
I501
sS'dapatkan'
p413
I79
sS'maksud'
p414
I317
sS'akan'
p415
I11
sS'Ya?'
p416
I184
sS'Osmund'
p417
I870
sS'Ke'
p418
I649
sS'namanya'
p419
I550
sS'Mesin'
p420
I329
sS'kapal,'
p421
I792
sS'alam'
p422
I716
sS'Ya,'
p423
I250
sS'serangan'
p424
I788
sS'alat'
p425
I883
sS'ditembak'
p426
I866
sS'berfikir'
p427
I615
sS'pencinta'
p428
I715
sS'selesai'
p429
I921
sS'UNK'
p430
I2
sS'Tepi'
p431
I891
sS'teka'
p432
I680
sS'13'
p433
I180
sS'12'
p434
I686
sS'hanya'
p435
I320
sS'biarkan'
p436
I841
sS'rangkaian'
p437
I822
sS'air,'
p438
I719
sS'direka'
p439
I987
sS'gigit'
p440
I507
sS'jawab,'
p441
I980
sS'Duadua'
p442
I915
sS'pertama'
p443
I804
sS'cerita'
p444
I311
sS'siapa,'
p445
I509
sS'sekitar'
p446
I717
sS'gunakannya'
p447
I463
sS'Tenangkan'
p448
I799
sS'Scofield,'
p449
I219
sS'setengah'
p450
I546
sS'perlukannya'
p451
I500
sS'Perlukan'
p452
I677
sS'barang'
p453
I587
sS'membuat'
p454
I859
sS'Bukan?'
p455
I882
sS'terkawal'
p456
I952
sS'bagaimana?'
p457
I526
sS'bahaya,'
p458
I953
sS'penggodaman'
p459
I941
sS'macam'
p460
I1015
sS'penuh'
p461
I232
sS'cuba,'
p462
I959
sS'letakkan'
p463
I944
sS'Di'
p464
I187
sS'suka'
p465
I173
sS'bila?'
p466
I999
sS'Yakah?'
p467
I267
sS'menyeludup'
p468
I563
sS'operasi'
p469
I456
sS'nota'
p470
I272
sS'berumur'
p471
I814
sS'Santa'
p472
I419
sS'sesibuk'
p473
I785
sS'menggodam'
p474
I850
sS'Itulah'
p475
I838
sS'Bagus'
p476
I613
sS'Nama'
p477
I918
sS'hotel'
p478
I824
sS'Saya'
p479
I5
sS'sekeliling'
p480
I929
sS'Dada'
p481
I530
sS'kurus'
p482
I379
sS'gila'
p483
I780
sS'tunggu!'
p484
I833
sS'Mansuhkan'
p485
I364
sS'Temukan'
p486
I875
sS'virus'
p487
I948
sS'Sambungan'
p488
I955
sS'dadah'
p489
I552
sS'kau'
p490
I30
sS'burung'
p491
I410
sS'Bertenang'
p492
I641
sS'persetujuan'
p493
I585
sS'kesan'
p494
I1001
sS'lihatnya'
p495
I617
sS'fikir'
p496
I397
sS'mahukan'
p497
I213
sS'ke'
p498
I68
sS'lagi?'
p499
I1013
sS'Batou?'
p500
I991
sS'Sofia'
p501
I362
sS'setuju'
p502
I575
sS'Teodoro'
p503
I461
sS'ianya'
p504
I171
sS'bertukar'
p505
I459
sS'Baguslah,'
p506
I539
sS'yang'
p507
I6
sS'Batou!'
p508
I893
sS'tunggu'
p509
I993
sS'lagi,'
p510
I289
sS'Itu'
p511
I95
sS'rumah'
p512
I309
sS'Kerosakan'
p513
I923
sS'kita'
p514
I27
sS'gambar'
p515
I614
sS'jam?'
p516
I684
sS'tukar'
p517
I502
sS'ukuran'
p518
I720
sS'mampus'
p519
I761
sS'arahannya'
p520
I415
sS'patung,'
p521
I652
sS'telah'
p522
I41
sS'berbual'
p523
I612
sS'terlalu'
p524
I417
sS'Selepas'
p525
I733
sS'Selesaikan'
p526
I598
sS'berita'
p527
I544
sS'PAD'
p528
I0
sS'teori'
p529
I412
sS'panggilan'
p530
I724
sS'Jangan'
p531
I112
sS'baik'
p532
I83
sS'melakukan'
p533
I383
sS'cakap'
p534
I104
sS'Kalau'
p535
I205
sS'"patron"'
p536
I597
sS'keadaan'
p537
I186
sS'sana?'
p538
I666
sS'Semoga'
p539
I565
sS'rasa'
p540
I51
sS'upah'
p541
I365
sS'buku'
p542
I91
sS'sewa'
p543
I714
sS'boleh'
p544
I19
sS'hari,'
p545
I908
sS'Tunjukkan'
p546
I447
sS'Hanka'
p547
I96
sS'jam'
p548
I74
sS'berpindah'
p549
I730
sS'bukan?'
p550
I136
sS'ambil'
p551
I176
sS'kesian'
p552
I895
sS'badan'
p553
I325
sS'diri,'
p554
I729
sS'keputusan'
p555
I926
sS'berfungsi'
p556
I797
sS'Memastikan'
p557
I658
sS'mahu?'
p558
I584
sS'terima'
p559
I157
sS'di'
p560
I7
sS'saya?'
p561
I121
sS'silap'
p562
I292
sS'menentukan'
p563
I934
sS'sebab'
p564
I138
sS'Hilang'
p565
I481
sS'sebelum'
p566
I973
sS'ceritakan'
p567
I528
sS'sekarang,'
p568
I466
sS'menunjukkan'
p569
I869
sS'silam'
p570
I932
sS'masalah,'
p571
I969
sS'ketinggalan?'
p572
I828
sS'itu,'
p573
I113
sS'sebuah'
p574
I296
sS'bau'
p575
I465
sS'belakang'
p576
I989
sS'Lechero'
p577
I259
sS'Seorang'
p578
I600
sS'Awak?'
p579
I407
sS'ucapkan'
p580
I750
sS'usaha'
p581
I519
sS'itu?'
p582
I92
sS'Sekarang!'
p583
I960
sS'tembak'
p584
I939
sS'berhenti'
p585
I604
sS'buat'
p586
I49
sS'hampir'
p587
I493
sS'abang'
p588
I245
sS'Robotik'
p589
I845
sS'tiada'
p590
I98
sS'pada'
p591
I57
sS'pagar'
p592
I568
sS'sempat'
p593
I689
sS'baru'
p594
I279
sS'memerlukan'
p595
I629
sS'memberitahu'
p596
I704
sS'mengetuai,'
p597
I801
sS'melampaulampau'
p598
I592
sS'sebagai'
p599
I152
sS'perjalanan'
p600
I626
sS'makmal'
p601
I865
sS'katakan'
p602
I301
sS'pengawasan'
p603
I821
sS'Setiap'
p604
I243
sS'masalahnya,'
p605
I559
sS'terdedah'
p606
I956
sS'mengandungi'
p607
I517
sS'benarkan'
p608
I454
sS'suatu'
p609
I1008
sS'sepupu'
p610
I486
sS'orangnya'
p611
I672
sS'begitu'
p612
I132
sS'Orang'
p613
I927
sS'klien'
p614
I593
sS'LJ!'
p615
I304
sS'Panama?'
p616
I667
sS'kebelakangan'
p617
I163
sS'mana'
p618
I84
sS'sebaik'
p619
I805
sS'perasaan'
p620
I896
sS'sedang'
p621
I33
sS'awak'
p622
I4
sS'kekal,'
p623
I767
sS'sasaran'
p624
I809
sS'nombor'
p625
I573
sS'dipaksa'
p626
I558
sS'kotak'
p627
I820
sS'sehingga'
p628
I287
sS'Boardman,'
p629
I662
sS'kelab'
p630
I963
sS'tangan'
p631
I169
sS'Berhenti'
p632
I756
sS'mati?'
p633
I778
sS'Menara'
p634
I302
sS'26'
p635
I571
sS'orangnya?'
p636
I413
sS'keunikan'
p637
I887
sS'lindungi'
p638
I1005
sS'berurusan'
p639
I674
sS'Lugo'
p640
I363
sS'Panjang'
p641
I607
sS'disambungkan'
p642
I931
sS'Apabila'
p643
I885
sS'terbunuh'
p644
I880
sS'Togusa'
p645
I856
sS'biasa'
p646
I440
sS'tetapi'
p647
I230
sS'tarikh'
p648
I360
sS'ceritanya'
p649
I608
sS'Si'
p650
I745
sS'23'
p651
I579
sS'berubah'
p652
I214
sS'berikan'
p653
I88
sS'bertanyakan'
p654
I726
sS'Awaklah'
p655
I527
sS'masalahnya'
p656
I271
sS'pulang'
p657
I381
sS'seri'
p658
I681
sS'minda'
p659
I197
sS'Company'
p660
I322
sS'mengekori'
p661
I470
sS'musnahkan'
p662
I679
sS'beli'
p663
I589
sS'sini?'
p664
I116
sS'"bootoo"'
p665
I638
sS'awak?'
p666
I133
sS'perempuan'
p667
I970
sS'kirinya'
p668
I485
sS'Ohio'
p669
I663
sS'berlalu'
p670
I224
sS'hadir'
p671
I361
sS'awak,'
p672
I94
sS'selalunya'
p673
I755
sS'peluang'
p674
I255
sS'73%'
p675
I827
sS'semula'
p676
I266
sS'mustahil'
p677
I697
sS'ikan'
p678
I711
sS'dua'
p679
I166
sS'daripada'
p680
I39
sS'Jun'
p681
I273
sS'Bateri'
p682
I533
sS'tinggalkan'
p683
I469
sS'reka'
p684
I912
sS'Setahun'
p685
I554
sS'Kamu'
p686
I873
sS'betul?'
p687
I227
sS'disebabkan'
p688
I793
sS'sengaja'
p689
I460
sS'sesiapa'
p690
I764
sS'tiga'
p691
I110
sS'Bukan'
p692
I100
sS'ingatannya'
p693
I951
sS'Yang'
p694
I215
sS'Lihat'
p695
I484
sS'seolaholah'
p696
I933
sS'Seolaholah'
p697
I930
sS'Whistler'
p698
I97
sS'berpeluh?'
p699
I954
sS'berharga'
p700
I738
sS'Mahone'
p701
I275
sS'memuat'
p702
I348
sS'bagaimana'
p703
I126
sS'sayang'
p704
I978
sS'menebus'
p705
I497
sS'Bermula'
p706
I606
sS'mengikut'
p707
I414
sS'tunai'
p708
I375
sS'tanggungjawab'
p709
I881
sS'beritahu'
p710
I87
sS'berikanya'
p711
I693
sS'Mangga'
p712
I744
sS'ini'
p713
I15
sS'kebuntuan'
p714
I425
sS'memang'
p715
I583
sS'Berikutan'
p716
I862
sS'Geisha'
p717
I340
sS'pengganas'
p718
I794
sS'Sudah'
p719
I58
sS'biar'
p720
I523
sS'perubahan'
p721
I199
sS'kasut'
p722
I393
sS'ia'
p723
I75
sS'temui'
p724
I701
sS'nampak'
p725
I76
sS'pengodaman'
p726
I840
sS'Sangat'
p727
I975
sS'sekali'
p728
I254
sS'sedikit'
p729
I130
sS'bukti'
p730
I359
sS'sama'
p731
I644
sS'selesai?'
p732
I938
sS'uruskan'
p733
I962
sS'berjumpa'
p734
I159
sS'mempunyai'
p735
I235
sS'mengambil'
p736
I175
sS'dunia'
p737
I192
sS'Saudara,'
p738
I525
sS'Jumpa'
p739
I253
sS'Keluarkan'
p740
I958
sS'bagi'
p741
I367
sS'ingat'
p742
I901
sS'minit'
p743
I139
sS'berfikir,'
p744
I802
sS'dibaiki'
p745
I443
sS'Sebuah'
p746
I800
sS'terbongkar'
p747
I950
sS'dijalankan'
p748
I806
sS'yakin'
p749
I511
sS'gelanggang'
p750
I483
sS'Ianya'
p751
I125
sS'tahulah'
p752
I894
sS'petang'
p753
I495
sS'membunuh'
p754
I774
sS'menyebarkan'
p755
I947
sS'Tidak!'
p756
I687
sS'bos'
p757
I749
sS'tiket'
p758
I659
sS'Tidak,'
p759
I183
sS'saja,'
p760
I382
sS'mereka!'
p761
I628
sS'perbualan'
p762
I424
sS'Alamak'
p763
I416
sS'dibenarkan'
p764
I1002
sS'sebaliknya'
p765
I521
sS'berjaya,'
p766
I566
sS'lepaskan'
p767
I646
sS'Semua'
p768
I928
sS'Cuma'
p769
I300
sS'Setakat'
p770
I848
sS'kemudian'
p771
I725
sS'tukang'
p772
I257
sS'Sesuatu'
p773
I252
sS'Ia'
p774
I105
sS'dulu?'
p775
I263
sS'langit'
p776
I369
sS'mercutanda'
p777
I736
sS'Sejak'
p778
I998
sS'Keadaan'
p779
I406
sS'keselamatan'
p780
I823
sS'bantuan'
p781
I124
sS'Satu'
p782
I142
sS'suara'
p783
I669
sS'kawan'
p784
I61
sS'sangat'
p785
I73
sS'kali'
p786
I244
sS'sembunyikan'
p787
I475
sS'buka'
p788
I345
sS'mahu!'
p789
I758
sS'setelah'
p790
I943
sS'selamat'
p791
I247
sS'betul'
p792
I655
sS'Maksudnya'
p793
I700
sS'penginapan'
p794
I770
sS'faham'
p795
I188
sS'Apapun'
p796
I240
sS'simpannya'
p797
I739
sS'Tetapi,'
p798
I471
sS'Mereka'
p799
I305
sS'percayakan'
p800
I161
sS'perlukan'
p801
I63
sS'akhirnya'
p802
I732
sS'digodam'
p803
I203
sS'jual,'
p804
I588
sS'rancangan'
p805
I429
sS'terkejut?'
p806
I966
sS'bertindak'
p807
I306
sS'4'
p808
I815
sS'mana,'
p809
I650
sS'ada'
p810
I22
sS'berdua'
p811
I498
sS'Ketika'
p812
I467
sS'Tolong'
p813
I843
sS'Tetapi'
p814
I119
sS'Sara,'
p815
I621
sS'Tarikh'
p816
I542
sS'melihat'
p817
I886
sS'Kenapa'
p818
I60
sS'Gabriel'
p819
I898
sS'sekarang'
p820
I66
sS'Dia'
p821
I56
sS'laporan'
p822
I861
sS'ingatan'
p823
I907
sS'Mana'
p824
I990
sS'dari'
p825
I32
sS'masih'
p826
I72
sS'fikiran'
p827
I326
sS'Jadi,'
p828
I225
sS'bir'
p829
I972
sS'laporkan'
p830
I811
sS'Bantu'
p831
I619
sS'Kita'
p832
I67
sS'menari'
p833
I356
sS'hidup'
p834
I239
sS'melindunginya'
p835
I1007
sS'harap'
p836
I766
sS'mengubah'
p837
I581
sS'bukan'
p838
I40
sS'jika'
p839
I86
sS'pagi'
p840
I141
sS'menerima'
p841
I198
sS'bekerjasama'
p842
I835
sS'alami'
p843
I285
sS'Baik'
p844
I55
sS'jelaskan'
p845
I524
sS'gadis'
p846
I601
sS'perkaraperkara'
p847
I520
sS'Seperti'
p848
I144
sS'Semuanya'
p849
I631
sS'gemuk'
p850
I590
sS'menara'
p851
I683
sS'lemas'
p852
I790
sS'Mari'
p853
I216
sS'segalanya'
p854
I765
sS'dihantar'
p855
I334
sS'sefahaman'
p856
I399
sS'selamatkan'
p857
I295
sS'kasih'
p858
I158
sS'semua'
p859
I177
sS'bosan'
p860
I984
sS'peduli?'
p861
I782
sS'Cuba'
p862
I332
sS'tanah'
p863
I968
sS'memanggil'
p864
I405
sS'sudah'
p865
I18
sS'talian'
p866
I441
sS'otak'
p867
I942
sS'mampu'
p868
I1006
sS'lukakan'
p869
I462
sS'minum'
p870
I971
sS'dominodomino'
p871
I754
sS'Seksyen'
p872
I996
sS'kawan?'
p873
I651
sS'terasa'
p874
I789
sS'sendiri'
p875
I868
sS'Tempat'
p876
I665
sS'jahat'
p877
I268
sS'Robot'
p878
I339
sS'Pertama,'
p879
I435
sS'bilik'
p880
I194
sS'Apa?'
p881
I288
sS'Simpan'
p882
I642
sS'Beritahu'
p883
I207
sS'Begini'
p884
I706
sS'keluarkan'
p885
I427
sS'belas'
p886
I448
sS'Lagipun'
p887
I661
sS'tidak'
p888
I8
sS'luar'
p889
I168
sS'luas'
p890
I370
sS'maknya'
p891
I504
sS'Jadi'
p892
I106
sS'kesempatan'
p893
I532
sS'beberapa'
p894
I154
sS'Betul?'
p895
I899
sS'kurang'
p896
I246
sS'dinding'
p897
I444
sS'pil,'
p898
I779
sS'syarikat'
p899
I331
sS'kepentingan'
p900
I319
sS'menyembunyikan'
p901
I728
sS'Saya,'
p902
I398
sS'sistem'
p903
I347
sS'bermakna'
p904
I366
sS'kejayaan'
p905
I808
sS'berminat'
p906
I705
sS'beratusratus'
p907
I940
sS'Bagaikan'
p908
I368
sS'satu,'
p909
I430
sS'Dengar'
p910
I160
sS'Xray'
p911
I1014
sS'masalah'
p912
I212
sS'tadi'
p913
I294
sS'saraf'
p914
I994
sS'Ada'
p915
I69
sS'mengenai'
p916
I336
sS'hubungi'
p917
I431
sS'Serahkan'
p918
I392
sS'Hatihati,'
p919
I783
sS'dalam'
p920
I26
sS'lagu'
p921
I816
sS'Tak'
p922
I150
sS'cantik'
p923
I635
sS'keluarga'
p924
I902
sS'diatasi'
p925
I913
sS'bimbit?'
p926
I452
sS'Batou'
p927
I342
sS'lagi'
p928
I99
sS'bolehlah'
p929
I637
sS'Betul,'
p930
I791
sS'siasia'
p931
I286
sS'Perancis'
p932
I819
sS'kerangka'
p933
I1000
sS'9'
p934
I997
sS'dulu'
p935
I446
sS'Hanya'
p936
I453
sS'ramai'
p937
I879
sS'menulis'
p938
I734
sS'soket'
p939
I535
sS'budak'
p940
I401
sS'Major!'
p941
I877
sS'setakat'
p942
I264
sS'mengorbankan'
p943
I556
sS'membayar'
p944
I713
sS'Major,'
p945
I202
sS'saja'
p946
I37
sS'tengah'
p947
I630
sS'kita,'
p948
I935
sS'tahu,'
p949
I321
sS'mesin'
p950
I328
sS'pula'
p951
I164
sS'menjadi'
p952
I318
sS'sekarang!'
p953
I555
sS'berkenalan'
p954
I580
sS'sekarang?'
p955
I428
sS'Tolonglah'
p956
I464
sS'jiwa'
p957
I327
sS'tapi'
p958
I151
sS'tentang'
p959
I80
sS'memerlukannya'
p960
I636
sS'tutup'
p961
I346
sS'seorang'
p962
I65
sS'isyarat'
p963
I200
sS'Michael,'
p964
I694
sS'paling'
p965
I634
sS'pantas'
p966
I599
sS'Koordinat,'
p967
I735
sS'sebarang'
p968
I220
sS'dialah'
p969
I699
sS'buktikan'
p970
I591
sS'monumen'
p971
I653
sS'robot!'
p972
I847
sS'jaminan'
p973
I434
sS'Berambus'
p974
I390
sS'pandai'
p975
I386
sS'simpanlah'
p976
I692
sS'nak'
p977
I353
sS'Anggap'
p978
I561
sS'pelawat'
p979
I403
sS'43'
p980
I826
sS'apabila'
p981
I108
sS'berkenaan'
p982
I682
sS'kedudukan'
p983
I303
sS'terlupa'
p984
I494
sS'Mak'
p985
I404
sS'senjata'
p986
I884
sS'jentera'
p987
I204
sS'realiti'
p988
I281
sS'ahli'
p989
I863
sS'terbiasa'
p990
I1016
sS'Alex'
p991
I784
sS'Agak'
p992
I378
sS'menarik'
p993
I312
sS'bayaran'
p994
I722
sS'Hello,'
p995
I787
sS'Jika'
p996
I89
sS'baikbaik'
p997
I165
sS'beredar'
p998
I445
sS'syaratsyarat'
p999
I229
sS'melarikan'
p1000
I433
sS'kenal'
p1001
I299
sS'Lengahkan'
p1002
I627
sS'bagus'
p1003
I540
sS'asalkan'
p1004
I721
sS'Major'
p1005
I201
sS'tidur'
p1006
I817
sS'selamatkannya'
p1007
I796
sS'masa'
p1008
I43
sS'mendengar'
p1009
I423
sS'risau,'
p1010
I977
sS'dipotong,'
p1011
I442
sS'Cakap'
p1012
I1011
sS'Biar'
p1013
I261
sS'lebih'
p1014
I48
sS'merancang'
p1015
I771
sS'atas'
p1016
I276
sS'Bekerjasama'
p1017
I844
s.