(lp0
S'Benarkah? Di mana awak'
p1
aS'Florida'
p2
aS'Awak dalam Divisyen Timurlaut?'
p3
aS'dengan GATE ialah di Clearwater'
p4
aS'lamalama satu tempat, bukan?'
p5
aS'Gembira dapat bertemu awak'
p6
aS'panggilan persidangan'
p7
aS'Tidak'
p8
aS'Tunduk'
p9
aS'Apa yang awak lakukan?'
p10
aS'Letak telefon'
p11
aS'pejabat Encik White Bertenang'
p12
aS'Duduk'
p13
aS'Tiada orang perlu tercedera'
p14
aS'Macam mana awak ada lima kad?'
p15
aS'buat awak sedih'
p16
aS'Apakah itu?'
p17
aS'Dan ini'
p18
aS'Sekarang awak pasti fikir mahu'
p19
aS'Awak belum pasti lagi'
p20
aS'Mari pergi'
p21
aS'Langung tidak tahu apa'
p22
aS'Kita juga tak tahu apa'
p23
aS'Percaya pada saya'
p24
aS'untuk aktifkan lif ini'
p25
aS'Awak ikut dengan kami'
p26
aS'pistol itu Semuanya terkawal'
p27
aS'sedang berlaku'
p28
aS'Kita sudah dapat'
p29
aS'Agak bagus'
p30
aS'Adakah itu meja yang awak duduk'
p31
aS'Wyatt bunuh anak saya?'
p32
aS'takkan dapat beri arahan lagi'
p33
aS'Awak rasa macam mana awak'
p34
aS'Sebaik sahaja kita'
p35
aS'pengawal saya suruh bangunan'
p36
aS'Tiada apa boleh masuk dan keluar'
p37
aS'takkan tiba'
p38
aS'Tiada apa'
p39
aS'Tiada apa'
p40
aS'Kembali bekerja'
p41
aS'berakhir dengan baik'
p42
aS'Awak tak rasa ia'
p43
aS'tunggu 10 minit'
p44
aS'Tahan sahaja'
p45
aS'di luar pejabat Jeneral'
p46
aS'Periksa lif'
p47
aS'Rekaan ini cuma dapat simpan'
p48
aS'Nama dan laporan?'
p49
aS'atau ayah awak?'
p50
aS'Laci sebelah kanan atas'
p51
aS'menarik minat awak'
p52
aS'nama awak disebut'
p53
aS'Saya mempunyai jawatan'
p54
aS'bernama The Company'
p55
aS'keputusan dibuat negara ini'
p56
aS'awak masih belum lahir'
p57
aS'dengan The Company?'
p58
aS'Itu yang dia beritahu awak?'
p59
aS'lindungi awak daripada kebenaran'
p60
aS'Ayah awak memang hebat'
p61
aS'tewaskan The Company'
p62
aS'kesilapan ayah awak yang sama'
p63
aS'tahu tentang The Company'
p64
aS'Tentang ayah awak'
p65
aS'Saya bersumpah, saya'
p66
aS'Ayuh, mari kita tamatkan semua ini'
p67
aS'Ejen Self?'
p68
aS'Mereka sudah masuk 2 jam lepas'
p69
aS'sudah dapat Scylla?'
p70
aS'janji pada awak,'
p71
aS'sekali tahu, faham?'
p72
aS'saya akan bawa kereta'
p73
aS'Dan saya akan kembali'
p74
aS'Senator Dallow'
p75
aS'Negara tunggu awak'
p76
aS'Terlalu berbahaya'
p77
aS'Hampir pada penamatnya'
p78
aS'Tak sangka awak dapat lakukannya'
p79
aS'Kami bersedia untuk masuk sebaik'
p80
aS'Apa yang awak mahukan?'
p81
aS'dan yuran anak awak akan'
p82
aS'Kami akan berikan rumah untuk dia'
p83
aS'beri duit untuk semuanya?'
p84
aS'dan teruskan hidup?'
p85
aS'Sekarang ini, lebih daripada dulu'
p86
aS'Tapi saya tahu, masa'
p87
aS'Dan mungkin suatu hari nanti awak'
p88
aS'Dan jika duit bukan'
p89
aS'Awak patut dengar apa'
p90
aS'Awak rasa terdesak kali ini'
p91
aS'Tapi dengar apa yang'
p92
aS'Jauhi saya'
p93
aS'Jauhi saya'
p94
aS'saya boleh berikan'
p95
aS'dan Sara Ke mana sahaja'
p96
aS'ialah lihat'
p97
aS'dan awak masuk penjara'
p98
aS'Tak mungkin ia akan terjadi'
p99
aS'Baik Terima kasih'
p100
aS'Maafkan saya'
p101
aS'Biar saya tolong awak dengan itu'
p102
aS'Jangan bimbang tentang itu'
p103
aS'Maafkan saya, semua'
p104
aS'Tak guna'
p105
aS'Ini akan tamat tak lama lagi'
p106
aS'Peluang terakhir'
p107
aS'kamu semua akan bebas'
p108
aS'Ke mana awak mahu pergi?'
p109
aS'Awak terjun dari tingkap'
p110
aS'Michael, awak bunuh saya,'
p111
aS'Helo?'
p112
aS'Apakah ini?'
p113
aS'Ini saya'
p114
aS'Saya sedang diacu pistol'
p115
aS'Oleh Tancredi'
p116
aS'Michael dan lainlain'
p117
aS'dia akan bunuh saya'
p118
aS'Tolonglah'
p119
aS'Saya cadangkan awak ikut'
p120
aS'Lelaki tak guna'
p121
aS'Telefon balik dia!'
p122
aS'dengan anak awak'
p123
aS'dengan Scylla'
p124
aS'tentang teman wanita awak'
p125
aS'Mungkin'
p126
aS'Tapi dia sudah berubah'
p127
aS'Ini senarai orang yang awak bunuh'
p128
aS'dan kawankawan'
p129
aS'lebih berharga dari mereka?'
p130
aS'berlaku Awak biarkan kami pergi'
p131
aS'Saya tak kisah manamana pun'
p132
aS'Selagi awak berpegang pada'
p133
aS'Awak arahkan Scylla dialihkan'
p134
aS'Saya yang akan bawa mereka sendiri'
p135
aS'Baik, tuan'
p136
aS'Ianya mustahil'
p137
aS'ditangkap atau mati'
p138
aS'Awak cakap Scofield ada rancangan'
p139
aS'muka Encik White'
p140
aS'Tak mengapa Saya ejen persekutuan'
p141
aS'Sekarang cepat, saya'
p142
aS'Baiklah Tolong buka'
p143
aS'Baik Saya akan perhatikan'
p144
aS'saya mahu awak pergi berdua'
p145
aS'Kenapa tak boleh pergi bersama?'
p146
aS'Saya mahu seramai yang mungkin'
p147
aS'Theodore Bagwell dikehendaki'
p148
aS'Dan Cole Pfeiffer pula menculik'
p149
aS'Awak perlu larikan diri Faham tak'
p150
aS'Jangan, Encik White'
p151
aS'Semua orang, tunduk!'
p152
aS'Telefon 911'
p153
aS'Dipaksa lakukan perkara yang'
p154
aS'tapi jika tak lakukan, orang'
p155
aS'Semuanya pasti akan ada pembalasan,'
p156
aS'Saya tak tahu apa yang awak lalui'
p157
aS'yang awak mahu tahu'
p158
aS'Mereka itu ialah awak'
p159
aS'awak harus tahu yang Scofield'
p160
aS'Awak seorang doktor dahulu'
p161
aS'untuk selamatkan orang'
p162
aS'Mereka suruh awak acu pistol'
p163
aS'Jadi awak tak bersalah?'
p164
aS'juga mengkaji data'
p165
aS'Puan Tabak?'
p166
aS'Cuma perlukan sedikit masa'
p167
aS'Awak tak apaapa?'
p168
aS'Saya sedang basuh skirt saya'
p169
aS'itu sebelum ia dicuci,'
p170
aS'Baik, puan'
p171
aS'keadaan di singgahsana awak'
p172
aS'sama sahaja, melarat'
p173
aS'sahaja untuk hentikan kamu semua'
p174
aS'Pusing, Lisa'
p175
aS'White, semuanya baik Saya boleh'
p176
aS'duduk di meja sahaja?'
p177
aS'ia akan bertahan?'
p178
aS'keluar dengan MP5 itu?'
p179
aS'Mereka kenal awak, Cole Awak saja'
p180
aS'Tapi, sangat gembira dapat'
p181
aS'Jangan lari'
p182
aS'Pusing'
p183
aS'Nama saya Ejen Khas Miriam Holtz'
p184
aS'Saya mahu cakap dengan anak saya,'
p185
aS'Sara akan awasi anak awak'
p186
aS'selamat pergi dari sini'
p187
aS'dalam FBI dan Khidmat Rahsia'
p188
aS'tempatan, hospital dan DMV'
p189
aS'Sebenarnya, bila kami beri Scylla'
p190
aS'semua ejen awak,'
p191
aS'akan didedahkan, dan semua'
p192
aS'Kami lakukan semua ini pada awak'
p193
aS'Awak jangan lupa, orang tua'
p194
aS'ayah awak untuk Company?'
p195
aS'bunuh orang yang membelot'
p196
aS'ayah awak akan cari awak'
p197
aS'Puan Tabak?'
p198
aS'Dia baru pergi Tancredi'
p199
aS'Awak tak apaapa?'
p200
aS'akan kembali sekarang'
p201
aS'selamat, dan mudah dipantau'
p202
aS'Tapi saya kena ada bersama'
p203
aS'kita dapat Scylla balik'
p204
aS'plat trak dan'
p205
aS'kepada polis'
p206
aS'Scofield ketahui prosedur kita'
p207
aS'harus tukar cara operasi kita'
p208
aS'Itu mereka Michael, awak di mana?'
p209
aS'Kita sudah dapat'
p210
aS'Michael, berhatihati, faham?'
p211
aS'Jumpa di tempat pertemuan kita'
p212
aS'Tunggu berita daripada kami'
p213
aS'Semoga berjaya'
p214
aS'Di lapangan terbang'
p215
aS'Pastikan tiada pesawat berlepas'
p216
aS'Faham, tuan'
p217
aS'Scylla keutamaan kita'
p218
aS'Mereka ada di belakang kita'
p219
aS'Hei, nama saya John Burton Polis'
p220
aS'Dengar, saya berjalan merentasi'
p221
aS'Terminal 2, berdekatan'
p222
aS'Saya nampak sesuatu yang'
p223
aS'Kita ada tetamu'
p224
aS'Lincoln Burrows'
p225
aS'Jangan'
p226
aS'Kenapa? Awak mahu tembakkah?'
p227
aS'orang saya akan tembak awak'
p228
aS'tak mahu orang tahu, bukan?'
p229
aS'apa yang mampu kami lakukan'
p230
aS'Berikan beg itu Sekarang'
p231
aS'Awak boleh beritahu sendiri'
p232
aS'Apa dia?'
p233
aS'Ya, baiklah'
p234
aS'Perlukah semua ini?'
p235
aS'Apa yang saya ada cuma komputer'
p236
aS'Awak silap orang'
p237
aS'Baik'
p238
aS'Ya, kami dah dapat'
p239
aS'daripada mulamula lagi?'
p240
aS'Saya baca fail awak'
p241
aS'Apa pula maksud awak?'
p242
aS'saya Theodore Bagwell, pesalah?'
p243
aS'saya ialah Cole Pfeiffer,'
p244
aS'dan pandai bercakap?'
p245
aS'Awak memang sudah tipu'
p246
aS'Sampailah masanya awak'
p247
aS'Seperti yang orang'
p248
aS'Kita banduan kepada'
p249
aS'dan dipenjarakan'
p250
aS'Tak sangka pula mereka cakap'
p251
aS'Jika awak keluarkan semua ini,'
p252
aS'Jangan bimbang'
p253
aS'saya juga akan dapat masalah'
p254
aS'Sekarang apa pula?'
p255
aS'Van tiba dalam masa setengah jam'
p256
aS'lapangan untuk proses menyeluruh'
p257
aS'Berikan kepada Ejen Schmidt'
p258
aS'konvoi kali ini'
p259
aS'tapi saya perlu ke Dallow'
p260
aS'Ya, saya tak apaapa'
p261
aS'Dia kena pergi ke hospital'
p262
aS'ambulans dengan van'
p263
aS'rawatan yang terbaik'
p264
aS'Tak, saya yang patut'
p265
aS'Sebab apa yang awak lakukan,'
p266
aS'Baiklah'
p267
aS'bersama dengan konvoi'
p268
aS'Tuan?'
p269
aS'Tak perlulah kita jadi'
p270
aS'Itu yang paling penting sekali'
p271
aS'Awak akan berjaya, Michael'
p272
aS'dan awak juga akan selamat'
p273
aS'macam sebelumsebelum ini'
p274
aS'Bagus juga bila saya nak'
p275
aS'tak perlu minum dalam'
p276
aS'Benar'
p277
aS'terakhir pergi restoran'
p278
aS'Seperti saya melarikan'
p279
aS'Masa untuk berehat'
p280
aS'Hei'
p281
aS'gembira sekarang ini'
p282
aS'Saya takut kerana kita'
p283
aS'dan saya akan'
p284
aS'Mari sini'
p285
aS'Sara'
p286
aS'yang semuanya akan baik'
p287
aS'Saya takkan buat macam itu'
p288
aS'Apa berlaku kepada Gretchen?'
p289
aS'Jadi inilah dia'
p290
aS'Saya tak percaya'
p291
aS'Senator Dallow?'
p292
aS'sedikit masalah'
p293
aS'tentang Scylla, dan pembeli lain?'
p294
aS'Dia sudah mati'
p295
aS'Kita perlukan banyak'
p296
aS'Mungkin Bagwell tahu'
p297
aS'perjanjian, dia akan cakap'
p298
aS'ketika mulamula di sini?'
p299
aS'akan selesaikan semuanya'
p300
aS'Michael?'
p301
aS'tanya Self tentang ambulans itu?'
p302
aS'Mungkin ada masalah'
p303
aS'Nombor yang anda dail tiada'
p304
aS'Dan juga tiada nombor yang baru'
p305
aS'Awak lakukan dengan'
p306
aS'Awak memang hebat'
p307
aS'Paling kurang awak boleh'
p308
aS'Terrence'
p309
aS'tidak faham'
p310
aS'menjadi teruk ialah'
p311
aS'tidak bunuh awak'
p312
aS'Sekarang, untuk menghormati'
p313
aS'saya akan lepaskan awak'
p314
aS'kunci yang awak pegang itu?'
p315
aS'awak perlukannya'
p316
aS'Kunci awak ada di'
p317
aS'Seorang lelaki penyelenggaran'
p318
aS'katanya awak ingin'
p319
aS'Mahu saya suruh dia pergi?'
p320
aS'Ini peluang terakhir'
p321
aS'Scotfiel dan semua'
p322
aS'Mereka sedang larikan diri'
p323
aS'awak pergi, bos'
p324
aS'Banyak kali saya ditangkap'
p325
aS'semuanya disebabkan'
p326
aS'Ruparupanya awak boleh'
p327
aS'dalam hidup awak'
p328
aS'Ya, ada kita yang lebih'
p329
aS'Kinte, awak akan bau macam'
p330
aS'melainkan awak boleh'
p331
aS'Lebih baik awak hantar nota kepada'
p332
aS'Theodore betul'
p333
aS'merosakkan sel kita'
p334
aS'Bantal, cadar, segalanya'
p335
aS'awak atau mengubahnya'
p336
aS'John?'
p337
aS'Itulah paling cepat saya boleh'
p338
aS'Awak boleh dapatkan'
p339
aS'Mungkin'
p340
aS'Bagus, jadi kita telah sedia'
p341
aS'melalui pintu di klinik penjara'
p342
aS'Linc dari kotak'
p343
aS'3 hari sepatutnya cukup'
p344
aS'Sekarang'
p345
aS'mana dia menjumpainya'
p346
aS'dibiarkan begitu?'
p347
aS'tapi tidak lama'
p348
aS'Belleck telah hilang'
p349
aS'Belleck telah hilang?'
p350
aS'tempat yang besar'
p351
aS'perasan untuk seketika'
p352
aS'segalanya di sini'
p353
aS'kehilangannya'
p354
aS'tempat ini akan ditutup'
p355
aS'menjumpainya'
p356
aS'Sebaik saja hari gelap'
p357
aS'Malam ini?'
p358
aS'Melarikan diri telah bermula'
p359
aS'menjumpai lubang itu'
p360
aS'mereka dapat tahu dia hilang'
p361
aS'Saya akan membaca surat'
p362
aS'Tengok berapa tahun awak akan'
p363
aS'geng mana yang bekerja dalam'
p364
aS'Jadi apa rancangan awak?'
p365
aS'kapal terbang malam ini?'
p366
aS'Awak ada tugas dapur, betul?'
p367
aS'Apa yang awak guna untuk'
p368
aS'Tidak tahu Rasanya'
p369
aS'Itu akan berhasil Dapatkan'
p370
aS'Saya akan cuba mendapatkan'
p371
aS'Awak yang lain cuba cari'
p372
aS'untuk hilangkan'
p373
aS'Semua ini tidak guna kalau kita'
p374
aS'Kita akan pergi lepas makan malam,'
p375
aS'pagar terbuka, 7:00, seorang'
p376
aS'Tidak, kita patut'
p377
aS'Kita akan lebih cepat'
p378
aS'telah hilang berjamjam'
p379
aS'kita tiada masa mendahului'
p380
aS'60 minit'
p381
aS'sejauh yang boleh dari sini'
p382
aS'di belakang'
p383
aS'Waktu halaman telah tamat!'
p384
aS'Mari pergi Cepat Satu barisan'
p385
aS'tidak bincang di sana'
p386
aS'Maksud saya, dia diawasi 24 jam'
p387
aS'keluarkannya malam ini'
p388
aS'awak tahu itu, betul?'
p389
aS'Hei, bos'
p390
aS'Adik saya di Gen Pop'
p391
aS'terlibat dalam kemalangan'
p392
aS'Ada apaapa cara saya boleh'
p393
aS'Ya'
p394
aS'Awak pasti semua titik'
p395
aS'Baik'
p396
aS'Siapa itu?'
p397
aS'mengendalikan banyak'
p398
aS'Dia mencari alamat berdasarkan'
p399
aS'Di mana ia?'
p400
aS'di mana, tapi bagaimana'
p401
aS'di Montana itu'
p402
aS'syarikat pegangan luar pesisir'
p403
aS'besar macam itu, betul?'
p404
aS'disokong oleh satu tabung'
p405
aS'estet Terrence Steadman'
p406
aS'pergi ke Blackfoot, Montana'
p407
aS'Tidak, kenapa?'
p408
aS'Rasanya dia belum datang'
p409
aS'Bellick? Dia hampir tidak pernah'
p410
aS'Scofield, ini bukan Gibsons'
p411
aS'Mereka telah mula tanya'
p412
aS'dari sini dalam 7 jam'
p413
aS'dapat jawapan'
p414
aS'peroksida itu?'
p415
aS'jumpa untuk tugas halaman'
p416
aS'Boleh beritahu saya'
p417
aS'Makkos, awak akan makan'
p418
aS'Bukan'
p419
aS'Ambil'
p420
aS'Betulkah?'
p421
aS'Kalau awak ada'
p422
aS'Apa?'
p423
aS'Kenapa, sesuatu berlaku?'
p424
aS'Dia akan beritahu awak'
p425
aS'Tapi macam mana dengan'
p426
aS'Apa yang berlaku?'
p427
aS'Kita diberi kepastian dia akan'
p428
aS'Awak boleh tahu segalanya'
p429
aS'sehingga dia bangun'
p430
aS'Kalau begitu, tukarkan semula'
p431
aS'Presiden'
p432
aS'Ya'
p433
aS'Semestinya kami tidak mahu'
p434
aS'Adakah awak mengugut saya?'
p435
aS'Caroline, kita semua'
p436
aS'pasang surut hati'
p437
aS'tapi kita tahu bahawa akhirnya'
p438
aS'Perbezaannya ialah siapa yang'
p439
aS'Kalau awak tidak boleh memujuk'
p440
aS'apakah perkara terbaik'
p441
aS'mungkin awak bukan'
p442
aS'Sara'
p443
aS'Cukup, Michael'
p444
aS'kebetulan dan kisah, kesemuanya'
p445
aS'Saya tahu apa awak buat'
p446
aS'berani untuk mengaku?'
p447
aS'Tahniah'
p448
aS'awak jujur dengan saya?'
p449
aS'Kali kedua?'
p450
aS'Dadah? Jarum?'
p451
aS'Kalau macam itu, apa?'
p452
aS'tidak pernah mahu'
p453
aS'melibatkan awak dalam ini'
p454
aS'Saya datang untuk'
p455
aS'Saya akan keluarkan'
p456
aS'malam ini'
p457
aS'bantuan awak'
p458
aS'sendiri, jangan cakap lagi'
p459
aS'Buat apa yang awak cakap'
p460
aS'Tapi dia akan masih hidup'
p461
aS'segala yang awak beritahu saya'
p462
aS'Jadi kenapa beritahu saya?'
p463
aS'yang boleh tolong'
p464
aS'melibatkan diri untuk penyelesaian'
p465
aS'sebahagian dalam penyelesaian'
p466
aS'awak tahu pasal kes dia'
p467
aS'saya atas ini'
p468
aS'Saya beri maklumat kepada ayah'
p469
aS'orang yang memerangkap Lincoln'
p470
aS'keselamatan yang lebih tinggi'
p471
aS'Saya tidak datang untuk berdebat'
p472
aS'Saya minta awak buat silap'
p473
aS'tidak mencuri apaapa'
p474
aS'lupa untuk kunci'
p475
aS'awak beredar malam ini'
p476
aS'Tolonglah'
p477
aS'Bilik ini?'
p478
aS'atas kaca di tepi pintu'
p479
aS'perlukan awak untuk'
p480
aS'rancangan awak'
p481
aS'Mulamulanya'
p482
aS'Saya perlu berada di sini'
p483
aS'Betul'
p484
aS'awak tidak percaya sekarang'
p485
aS'awak pandang saya'
p486
aS'Jangan salahkannya'
p487
aS'Ya?'
p488
aS'Kena cepat sedikit'
p489
aS'Cepat Malam ini'
p490
aS'Rasanya apa yang awak kata ialah'
p491
aS'Ya, sudah tentu Akan diuruskan'
p492
aS'Van?'
p493
aS'Di belakang kilang lama?'
p494
aS'Satu soalan, John'
p495
aS'lebih besar? 3 tempat duduk saja'
p496
aS'terdapat 7 atau 8 orang'
p497
aS'Awak akan beritahu'
p498
aS'Tiga orang yang akan hidup'
p499
aS'lebih dekat dengan Blackfoot'
p500
aS'kami penerbangan seterusnya'
p501
aS'Helo?'
p502
aS'Kami mahu awak sediakan gadis di'
p503
aS'Malam ini?'
p504
aS'Tidak, cuma'
p505
aS'menjadi huruhara'
p506
aS'Adakah itu'
p507
aS'Ayuh, macamlah awak tidak mahu'
p508
aS'tapi kalau tiada punggung besar'
p509
aS'terbesar lelaki'
p510
aS'Awak telah jumpa jalan'
p511
aS'Sedang berusaha'
p512
aS'Belum'
p513
aS'tahu sama ada dia pergi manamana?'
p514
aS'macam mak dia?'
p515
aS'Awak pasti dia belum datang lagi?'
p516
aS'saya sangka saya'
p517
aS'Tweener!'
p518
aS'Ya, saya uruskan'
p519
aS'Baik'
p520
aS'Apabila awak sampai usia saya,'
p521
aS'Awak telah tugaskan orang yang'
p522
aS'Siapa?'
p523
aS'Mereka berdua nak keluar dari sini'
p524
aS'Fikir begitu?'
p525
aS'dari TBag semalam'
p526
aS'sana lewat 10 saat'
p527
aS'membunuh Abruzzi'
p528
aS'ketua, dan itu tak mengapa'
p529
aS'mengawal situasi'
p530
aS'yang saya cakap?'
p531
aS'Tengok, inilah dia'
p532
aS'ini Tidak boleh ada komplikasi'
p533
aS'tidak akan berpeluang keluar'
p534
aS'kerja dari daerah itu'
p535
aS'Ya'
p536
aS'Kertas kerja dari daerah'
p537
aS'Tolong saya, boleh awak'
p538
aS'Saya kena keluar dari sini'
p539
aS'Terima kasih'
p540
aS'Keluar'
p541
aS'atas alat PI awak'
p542
aS'Buat saja'
p543
aS'kami kenapa?'
p544
aS'dapatkan baju yang perlu'
p545
aS'Apa yang awak buat?'
p546
aS'Tidak apa'
p547
aS'Tidak kira apa berlaku, kita'
p548
aS'Apabila rancangan berubah,'
p549
aS'Saya pastikan semua terlepas'
p550
aS'maklumat macam itu patut'
p551
aS'Lebih seorang bermaksud lebih'
p552
aS'Dia tidak boleh ikut'
p553
aS'Kita kena bincang'
p554
aS'Saya tidak terhutang'
p555
aS'Awak akan, kalau'
p556
aS'kerana awak tidak mahu'
p557
aS'Jangan risau, tidak'
p558
aS'Hei!'
p559
aS'Saya nampak titisan darah'
p560
aS'Siapa boleh beritahu saya'
p561
aS'Itu saya, bos'
p562
aS'peralatan ke dalam bangsal'
p563
aS'tampal luka itu'
p564
aS'Baik'
p565
aS'Awak tidak apaapa?'
p566
aS'dari sini malam ini'
p567
aS'Hei, Shelly, saya ini'
p568
aS'awak sebagai penaja saya'
p569
aS'Baik'
p570
aS'upacara melancarkan pelarian ini'
p571
aS'untuk ulangtahun awak malam ini'
p572
aS'Tidak'
p573
aS'awak tahu bahawa'
p574
aS'baik kerana jumpa awak'
p575
aS'jurutera struktur'
p576
aS'Tidak, saya cakap begitu bukan'
p577
aS'Maksud saya awak seorang'
p578
aS'tidak ramai yang'
p579
aS'Masih ada beberapa orang lagi'
p580
aS'Saya tahu ini sudah tentu,'
p581
aS'kalau awak perlukan apaapa'
p582
aS'budi pada awak'
p583
aS'ada satu perkara yang'
p584
aS'Seluruh perkara ini'
p585
aS'Ianya tentang ayah'
p586
aS'Michael'
p587
aS'Apa?'
p588
aS'Baru beritahu awak segala yang'
p589
aS'Dan awak tidak terkejut'
p590
aS'Malam ini'
p591
aS'Bellick jumpa lubang itu, nahaslah'
p592
aS'Michael'
p593
aS'saya boleh lakukan ini'
p594
aS'Rantai yang mengunci awak'
p595
aS'Saya boleh lakukan ini!'
p596
aS'Pergi'
p597
aS'Jangan kata itu'
p598
aS'lakukan ini Masa tidak mencukupi'
p599
aS'terkurung selamalamanya'
p600
aS'beritahu awak Tinggalkan saya'
p601
aS'Apa yang awak buat?'
p602
aS'Awak cuba uruskan sesuatu'
p603
aS'bersama dengan awak itu?'
p604
aS'Beritahu saya'
p605
aS'awak yang menangkap?'
p606
aS'dengan jelas bahawa'
p607
aS'Ini bukan bisnes, baik?'
p608
aS'Apa yang awak ada, pencuci?'
p609
aS'cuba bersihkan?'
p610
aS'Terdapat laporan berita'
p611
aS'pertandingan untuk'
p612
aS'Wartawan politik, Nancy Lu'
p613
aS'Nancy'
p614
aS'Timbalan Presiden, Reynold'
p615
aS'awal yang terperinci'
p616
aS'pencalonan partinya'
p617
aS'kemasukan gabenor Illinois,'
p618
aS'Pertimbangannya menyumbang'
p619
aS'yang tegas ke atas jenayah'
p620
aS'beri Lincoln Burrows pengampunan'
p621
aS'Timbalan Presiden'
p622
aS'oleh Oval Office'
p623
aS'Sebuah lori yang besar terbabas'
p624
aS'Tugas Tuhan'
p625
aS'najis kuda atas tilam awak?'
p626
aS'mempersoalkan keinginanNya'
p627
aS'Hei, hei, hei!'
p628
aS'Buka 88!'
p629
aS'Peralatan Avocado'
p630
aS'klinik penjara malam ini'
p631
aS'Jadi awak ada banyak'
p632
aS'Hei, saya dengar awak tanya'
p633
aS'Kata awak rasa awak'
p634
aS'Ya'
p635
aS'Bukan, itu adalah kelmarin'
p636
aS'Awak pasti?'
p637
aS'Awak senang tersilap'
p638
aS'Baik'
p639
aS'Apa saya patut'
p640
aS'Tuang ke dalam tandas'
p641
aS'peroksida dari dapur'
p642
aS'bersihkan tandas?'
p643
aS'wad psikologi malam ini'
p644
aS'Sekumpulan banduan pakai baju'
p645
aS'Tapi banduan dalam wad'
p646
aS'Putih'
p647
aS'Samaran'
p648
aS'telah ada semua yang perlu'
p649
aS'abang awak'
p650
aS'Saya fikir pasal Linc'
p651
aS'Sudah tentu, En Presiden'
p652
aS'Kalau saya berjudi'
p653
aS'akan pertaruhkan cip saya'
p654
aS'Kenapa awak ubah fikiran?'
p655
aS'yang ia penuh dengan khinzir'
p656
aS'sedia untuk buat bising'
p657
aS'Ya, bil itu ada kekurangan'
p658
aS'tidak buat apaapa'
p659
aS'kenapa awak berada di sini'
p660
aS'bil yang awak sokong'
p661
aS'Sesetengah kita perlu'
p662
aS'Sebenarnya saya telah'
p663
aS'khususnya tentang'
p664
aS'Apa?'
p665
aS'menyokong Senator'
p666
aS'Awak tidak boleh buat itu'
p667
aS'Caroline'
p668
aS'politik bermasalah'
p669
aS'perubahan, tapi untuk keuntungan'
p670
aS'tapi untuk membuat permintaan'
p671
aS'bukan kerana kita sependapat'
p672
aS'berlainan jantina'
p673
aS'Kita tahu ini dibuat macam mana'
p674
aS'Selamat tinggal'
p675
aS'Richard!'
p676
aS'isteri sempena ulangtahun kami?'
p677
aS'Selendang'
p678
aS'Saya kena buat sesuatu istimewa'
p679
aS'ini sehingga akhir'
p680
aS'Baik'
p681
aS'Sedia'
p682
aS'Tidak!'
p683
aS'Baik, panggil Scofield'
p684
aS'Itu berhasil'
p685
aS'Kita kena pakai di bawah baju'
p686
aS'yang lagi 45 minit'
p687
aS'Kita tiada pilihan'
p688
aS'Dan kita akan perlukan setiap saat'
p689
aS'Scofield, Pope mahu jumpa segera'
p690
aS'Untuk apa?'
p691
aS'Sekarang 6:15 Awak tidak boleh'
p692
aS'Hei, si cantik, masa'
p693
aS'Minta diri sebentar'
p694
aS'Rasanya untuk mengucap tahniah'
p695
aS'dengar itu dalam berita'
p696
aS' Itu sekadar cakap kosong'
p697
aS'Ya'
p698
aS'awak pernah kata?'
p699
aS'walaupun awak tiada'
p700
aS'Ya, dia juga pernah kata,'
p701
aS'tapi saya anggap dia'
p702
aS'Bagus untuk jumpa awak, Sara'
p703
aS'Atau awak datang hanya untuk'
p704
aS'Awak tengok maklumat yang saya'
p705
aS'Sayang, lupakan saja'
p706
aS'bukti baru, mereka tidak buat'
p707
aS'itu telah ditutup'
p708
aS'telah tengok maklumat itu?'
p709
aS'Jawab saya'
p710
aS'River telah mengubah awak'
p711
aS'membawa perubahan?'
p712
aS'Terlalu lambat'
p713
aS'awak boleh mengajar mereka ini'
p714
aS'Awak telah tengok maklumat itu?'
p715
aS'Saya menyokong'
p716
aS'Kalau awak ada masalah dengan'
p717
aS'Tapi sebelum awak buat itu, saya'
p718
aS'dan tanya diri awak sama ada'
p719
aS'kalau Lincoln Burrows'
p720
aS'Beritahu saya'
p721
aS'posisi timbalan presiden'
p722
aS'menandatangani waran kematiannya?'
p723
aS'moral dengan penagih dan pencuri'
p724
aS'realiti, Sara?'
p725
aS'saya untuk keluarkan awak'
p726
aS'sampah awak dari penjara?'
p727
aS'3 kali, 4 kali?'
p728
aS'Awak boleh terima saya'
p729
aS'Terutama sekali apabila ianya'
p730
aS'Membesarlah'
p731
aS'budak Tweener itu?'
p732
aS'hari, tapi saya tidak pasti'
p733
aS'Cara dia cakap itu'
p734
aS'sesuatu peribadi'
p735
aS'Dan kalau dia tidak?'
p736
aS'tiada orang nampak dia lagi'
p737
aS'Baik'
p738
aS'Awak panggil teksi untuk'
p739
aS'Tidak, belum'
p740
aS'akan berlepas dalam sejam'
p741
aS'Saya mula fikir bahawa'
p742
aS'mungkin bukannya'
p743
aS'Apa yang awak cakap?'
p744
aS'senapang asap ada dalam rumah itu?'
p745
aS'masuk situ dan menahan penduduk?'
p746
aS'masalah awak barubaru ini'
p747
aS'itu walaupun awak tidak naik'
p748
aS'biar awak buat itu'
p749
aS'sebahagian daripada mereka?'
p750
aS'Steadman? Kellerman?'
p751
aS'Saya mahu awak ingat muka saya'
p752
aS'Pandang saya!'
p753
aS'Scofield di luar, tuan'
p754
aS'Saya mahu awak cuba setiap nombor'
p755
aS'Cuba rumahnya dulu'
p756
aS'Pn Bellick?'
p757
aS'Sebentar'
p758
aS'Pn Bellick?'
p759
aS'Cuma kami belum jumpa dia'
p760
aS'dia telah sampai rumah'
p761
aS'apabila dia sampai pagi ini?'
p762
aS'telah sampai?'
p763
aS'Kami akan maklum pada awak'
p764
aS'Radio Mack'
p765
aS'Bellick di tempat parkir'
p766
aS'saya dengan segera'
p767
aS'Apakah 20 awak?'
p768
aS'Saya akan lahirkan anak awak'
p769
aS'rasa sangat takut'
p770
aS'melakukan ini berseorangan'
p771
aS'akan terlalu lambat'
p772
aS'Christ dalam hati awak'
p773
aS'Dia akan maafkan awak dan'
p774
aS'Saya akan bagi awak Fibonacci'
p775
aS'Masa itu ialah sekarang'
p776
aS'awak dua berdiri di luar dinding'
p777
aS'hari, dan apabila berjaya'
p778
aS'macam mana awak berjalan'
p779
aS'Berapa kali saya kena kata?'
p780
aS'benda daripada awak'
p781
aS'Anak perempuan awak menghidapi'
p782
aS'dan dia ingin berjumpa awak'
p783
aS'Berapa lama lagi dia ada?'
p784
aS'Saya terbaca bahawa Taj'
p785
aS'nampak merah jambu pada pagi,'
p786
aS'dan keemasan apabila'
p787
aS'Mereka kata perubahan itu'
p788
aS'Saya beritahu awak kalau'
p789
aS'saya tidak mahu bayangkan'
p790
aS'kalau saya balik'
p791
aS'Anehnya Maksud saya,'
p792
aS'Apabila kita angkatnya, alang'
p793
aS'Apakah ini?'
p794
aS'Dan benda yang'
p795
aS'Awak mengambilnya?'
p796
a.