(lp0
S'Sudah jelas?'
p1
aS'dan Sara sebagai bukti'
p2
aS'Saya akan dapatkan tarikh'
p3
aS'dan awak akan hadir di sana'
p4
aS'Sofia Lugo'
p5
aS'Kenapa dia mahu ini?'
p6
aS'Beritahu kawan nelayan awak'
p7
aS'Mansuhkan upah bunuh'
p8
aS'Whistler tidak bermakna bagi saya'
p9
aS'dalam beberapa cara'
p10
aS'Bagaikan langit yang luas'
p11
aS'hendak keluar dari sini?'
p12
aS'Apa awak sedang buat?'
p13
aS'Saya perlukan wang dan saya'
p14
aS'Saya cuma ada dalam $50'
p15
aS'Saya bercakap tentang'
p16
aS'Beg galas itu'
p17
aS'wang tunai di dalamnya'
p18
aS'mahu tempat berlindung'
p19
aS'sudah tiada'
p20
aS'untuk adik saya'
p21
aS'Agak kurus'
p22
aS'daripada penjara'
p23
aS'Benar, Linc Tetapi bukan kita'
p24
aS'Sudah tentulah'
p25
aS'pulang lagi'
p26
aS'Bukan awak seorang saja, Linc'
p27
aS'melakukan sesuatu'
p28
aS'Bukan mereka'
p29
aS'Tetapi masalah ini nampaknya'
p30
aS'Saya cuma mahukan wang'
p31
aS'Linc?'
p32
aS'Sekejap saja manusia berubah'
p33
aS'Yang pandai akan merebut'
p34
aS'Yang bodoh pula?'
p35
aS'Berambus'
p36
aS'Saya maksudkan yang'
p37
aS'Serahkan sekarang'
p38
aS'kawan Awak mahu kasut ini?'
p39
aS'Biarkan dia'
p40
aS'terima kasih untuk Whistler'
p41
aS'apa awak cakapkan sekarang'
p42
aS'Apapun, saya fikir kita boleh'
p43
aS'Mungkin saya boleh'
p44
aS'Mari sini'
p45
aS'Awak bantu saya?'
p46
aS'Saya, bukannya awak'
p47
aS'Sona, mereka datang berjumpa saya'
p48
aS'meminta bantuan'
p49
aS'Tidak Kita tidak sefahaman'
p50
aS'ke sini begitu, budak'
p51
aS'simpati daripada saya'
p52
aS'Scofield, awak ada pelawat'
p53
aS'Mak awak sudah memanggil'
p54
aS'Keadaan tidak baik Awak?'
p55
aS'awak dapat daripada Whistler'
p56
aS'Buku panduan burung dengan nama'
p57
aS'Ada sebarang teori siapa orangnya?'
p58
aS'yang mengikut arahannya'
p59
aS'cakap lelaki itu seorang nelayan'
p60
aS'Dengar Saya mahu'
p61
aS'Alamak'
p62
aS'Ianya seperti dia sedang'
p63
aS'Ia terlalu kecil'
p64
aS'Ini akhbar hari ini'
p65
aS'kepada Santa Rita'
p66
aS'20 batu dari sini'
p67
aS'dia berada di mana'
p68
aS'dengan dia, Linc'
p69
aS'akan mendengar perbualan itu'
p70
aS'Kita perlukan lebih banyak'
p71
aS'Saya sudah kebuntuan'
p72
aS'Tiga hari sudah berlalu dan'
p73
aS'Jadi jika saya tidak berjaya'
p74
aS'awak perlu keluarkan'
p75
aS'Jadi, bagaimana sekarang?'
p76
aS'Saya akan beritahu rancangan saya'
p77
aS'Saya seorang nelayan'
p78
aS'Awak tidak mahu percayakan saya?'
p79
aS'Bagaimana saya hendak tahu'
p80
aS'Awak tidak akan tahu'
p81
aS'Nombor satu, betul?'
p82
aS'Tidak sejak kebelakangan ini'
p83
aS'Saya pula perlukan'
p84
aS'Tetapi itu tidak akan'
p85
aS'Siapa yang awak perlu hubungi pun?'
p86
aS'Sudah tentulah tidak'
p87
aS'Ianya penetapan syaratsyarat'
p88
aS'untuk melarikan diri pun'
p89
aS'bercakap dengan Sara'
p90
aS'Saya boleh berikan jaminan'
p91
aS'Pertama, Sara baikbaik saja'
p92
aS'berpeluang untuk'
p93
aS'daripada dapat bercakap dengan dia'
p94
aS'tetapi tidak mengapa'
p95
aS'penetapan syaratsyarat saya?'
p96
aS'Pihak kerajaan telah'
p97
aS'apabila mereka dapat tahu'
p98
aS'masih berurusniaga'
p99
aS'seperti biasa'
p100
aS'Jika talian dipotong,'
p101
aS'Tiada apa untuk dibaiki'
p102
aS'penuh di dinding sana'
p103
aS'sudah tiada sekarang'
p104
aS'saya akan beredar dulu'
p105
aS'bunuh Whistler dalam dua hari'
p106
aS'apa orang awak boleh lakukan'
p107
aS'Tunjukkan sedikit belas kasihan'
p108
aS'apabila Whister sudah bebas'
p109
aS'tahu tentang adik saya'
p110
aS'Awak mahu dia buat sesuatu,'
p111
aS'Bagaimana Michael hendak'
p112
aS'Bagaimana dengan telefon bimbit?'
p113
aS'keluar dan masuk di sini'
p114
aS'Hanya seorang mempunyai'
p115
aS'dan dia tidak akan benarkan'
p116
aS'menggunakannya'
p117
aS'Apa ini?'
p118
aS'operasi awak di luar sana'
p119
aS'Mustahil'
p120
aS'"Barangbarang" bertukar tangan'
p121
aS'sejak kebelakangan ini'
p122
aS'Atau seseorang sengaja'
p123
aS'Teodoro'
p124
aS'gunting rambut di bawah untuk saya'
p125
aS'Beritahu dia, jika dia lukakan'
p126
aS'saya akan gunakannya'
p127
aS'Awak masih hidup'
p128
aS'Tolonglah Sudah tiga hari'
p129
aS'Apapun bau awak sekarang,'
p130
aS'Ketika saya tidak mendapat'
p131
aS'Maafkan saya'
p132
aS'ianya sedikit'
p133
aS'Setiap kali mereka'
p134
aS'Pandang saya'
p135
aS'tinggalkan tempat ini'
p136
aS'Baik'
p137
aS'Ya'
p138
aS'telah mengekori saya'
p139
aS'Saya tidak tahu'
p140
aS'Tidak Tetapi, dia'
p141
aS'Maafkan saya'
p142
aS'Bagaimana rupanya?'
p143
aS'Dia suruh saya beritahu yang abang'
p144
aS'Siapa Scofield?'
p145
aS'Tiada siapa'
p146
aS'bantu saya keluar dari sini'
p147
aS'Lebih kurang begitu'
p148
aS'dapatkan buku itu?'
p149
aS'awak akan lebih selamat'
p150
aS'saya tidak dapat membantu'
p151
aS'Saya cuma mahu awak sembunyikan'
p152
aS'Apa sebenarnya yang'
p153
aS'Apa yang penting sangat'
p154
aS'Tiada apaapa'
p155
aS'Nombor telefon'
p156
aS'akan bantu saya keluar dari sini'
p157
aS'Kenapa saya mahu membohongi awak?'
p158
aS'yang saya percayakan'
p159
aS'Mari sini'
p160
aS'percayakan saya'
p161
aS'Tiada apaapa'
p162
aS'Awak sedang mencari sesuatu,'
p163
aS'Ya, ya Benar'
p164
aS'Sesuatu'
p165
aS'Awak ada kertas?'
p166
aS'Hilang dan Jumpa'
p167
aS'Baik'
p168
aS'yang tidak sepatutnya lagi'
p169
aS'gelanggang itu sekali lagi'
p170
aS'Saya tidak suka peluang'
p171
aS'Helo?'
p172
aS'Lihat pada tangan kirinya'
p173
aS'kepada sesuatu'
p174
aS'sepupu saya perlu ada nanti'
p175
aS'saya naik berang'
p176
aS'Perlu caj pula'
p177
aS'ambilkan pakaian saya'
p178
aS'Saya hampir terlupa'
p179
aS'tukang gunting rambut itu'
p180
aS'pada jam dua petang'
p181
aS'"Patron"'
p182
aS'benda baik untuk menebus'
p183
aS'Kita berdua akan capai'
p184
aS'Lechero mempunyai'
p185
aS'Saya perlukannya'
p186
aS'Mahu saya tukar'
p187
aS'Atau mungkin meniduri maknya juga?'
p188
aS'untuk citarasa awak, bukan?'
p189
aS'Jangan gigit tangan yang'
p190
aS'dapatkan makanan daripada itu'
p191
aS'Saya mahukan bantuan'
p192
aS'Sebab tidak seperti'
p193
aS'saya tahu awak siapa,'
p194
aS'dan kepada siapa'
p195
aS'Biar saya cuba fahamkan'
p196
aS'Maksud saya adalah ini'
p197
aS'Dan saya yakin'
p198
aS'tidak dapat terima'
p199
aS'Awak mahu cuba dulu?'
p200
aS'Ini apa yang saya tahu setakat ini'
p201
aS'sedang membantu di luar'
p202
aS'dengan teman wanita saya'
p203
aS'mengambil buku milik saya'
p204
aS'Apa yang istimewa sangat'
p205
aS'Melainkan ia mengandungi jalan'
p206
aS'saya tidak rasa ianya'
p207
aS'Awak tidak tahu apa yang'
p208
aS'Awak akan dapat semula buku itu'
p209
aS'Yakah? Dan bilakah itu?'
p210
aS'nampak apaapa usaha'
p211
aS'keluar dari sini'
p212
aS'saya sudah tahu setakat ini'
p213
aS'lakukan perkaraperkara jahat'
p214
aS'dari penjara ini'
p215
aS'saya lakukan yang sebaliknya'
p216
aS'Awak marah sebab seseorang'
p217
aS'Ini apa yang mereka ambil'
p218
aS'Jadi biar saya jelaskan sesuatu'
p219
aS'Bukan awak, bukan buku awak'
p220
aS'Saudara, bagaimana?'
p221
aS'Awaklah ceritakan bagaimana'
p222
aS'kitarannya, dan Dada'
p223
aS'Nampaknya seperti lebih banyak'
p224
aS'sejak kebelakangan ini, bukan?'
p225
aS'Saya rasa seseorang sedang cuba'
p226
aS'Dan sedang mengambil kesempatan'
p227
aS'Jika sudah buat kesilapan, saya'
p228
aS'Tiada sebarang kesilapan,'
p229
aS'Jadi mungkin masalahnya'
p230
aS'Mungkin masalahnya'
p231
aS'Bateri sudah matikah?'
p232
aS'Bagaimana soket ini tercabut?'
p233
aS'Awak semua tidak tahu apaapa?'
p234
aS'Saya peguambela yang ditugaskan'
p235
aS'Baguslah, bagus'
p236
aS'beberapa nota yang saya'
p237
aS'Kami berjaya dapatkan'
p238
aS'Yakah?'
p239
aS'13 Jun'
p240
aS'13 Jun? Tarikh itu sudah berlalu'
p241
aS'13 Jun tahun depan, En Mahone'
p242
aS'Bagaimana pula itu berita baik?'
p243
aS'dua setengah tahun'
p244
aS'dihadapkan di depan hakim'
p245
aS'namanya Michael Scofield'
p246
aS'telah memerangkap saya'
p247
aS'dadah di atas bot tersebut'
p248
aS'Setahun dari sekarang!'
p249
aS'Ianya mudah saja'
p250
aS'Saya ada seorang'
p251
aS'mengorbankan diri'
p252
aS'banduan bukan benda baru'
p253
aS'seseorang telah dipaksa'
p254
aS'Ini masalahnya, Raul'
p255
aS'ubat yang mereka'
p256
aS'mereka tidak berikan'
p257
aS'Anggap sajalah ianya'
p258
aS'jika saya dapatkan ubat ini'
p259
aS'Tidak, tidak Ianya realiti'
p260
aS'Jika awak meminta saya menyeludup'
p261
aS'Bukan Saya bukannya minta'
p262
aS'Maksud saya cuma jika'
p263
aS'Semoga berjaya, En Mahone'
p264
aS'Undurkan diri dari pagar'
p265
aS'Baik'
p266
aS'Tidak perlu Setengah jam saja'
p267
aS'Awak ada 30 26 minit'
p268
aS'Jika telefon itu tidak dikembalikan'
p269
aS'Sebab saya tidak akan'
p270
aS'Ya?'
p271
aS'pada nombor ini'
p272
aS'belum setuju pun'
p273
aS'Saya cuma ada 25 minit'
p274
aS'Saya hendak berjumpa dia sekarang'
p275
aS'bandar yang kecil'
p276
aS'berikan petunjuk di mana'
p277
aS'Ini peluang sekali saja'
p278
aS'23 minit'
p279
aS'Hei, nampaknya kita berkenalan'
p280
aS'Saya bukannya orang jahat'
p281
aS'Saya ada masalah berjalan'
p282
aS'mengubah seseorang'
p283
aS'Pistachio'
p284
aS'Itu memang'
p285
aS'Apa awak mahu?'
p286
aS'persetujuan Bertukar barang'
p287
aS'jual, saya tidak mahu beli'
p288
aS'lelaki yang tidak gemuk'
p289
aS'Saya boleh buktikan jika saya'
p290
aS'melampaulampau nanti'
p291
aS'Awak tidak perlu'
p292
aS'Ada klien lain'
p293
aS'Selamat datang, "patron"'
p294
aS'Selesaikan dengan pantas'
p295
aS'Seorang gadis perlu'
p296
aS'Ini bukan satu permainan'
p297
aS'Sudah semakin jelas'
p298
aS'Jadi berhenti berpurapura'
p299
aS'dan berikan apa kami'
p300
aS'Bermula dengan'
p301
aS'Helo?'
p302
aS'Bagaimana keadaan awak?'
p303
aS'Di mana'
p304
aS'Panjang ceritanya'
p305
aS'ke manamana'
p306
aS'Saya sedang usahakannya'
p307
aS'perbualanperbualan kita'
p308
aS'kita berbual dulu?'
p309
aS'Bagus'
p310
aS'nampak gambar awak hari ini'
p311
aS'tahu saya faham'
p312
aS'yang awak alami sekarang'
p313
aS'mahu awak berfikir begitu'
p314
aS'Awak perlu tahu'
p315
aS'perjuangan yang siasia'
p316
aS'lihatnya sekarang'
p317
aS'Awak faham?'
p318
aS'Bantu saya faham'
p319
aS'perlukan lebih banyak masa'
p320
aS'awak masa sehingga'
p321
aS'di sini hingga jam tiga pagi'
p322
aS'Sara, saya cintakan awak'
p323
aS'Sara'
p324
aS'Linc, mereka tidak pernah'
p325
aS'Apa?'
p326
aS'Dia cakap dia dapat lihat'
p327
aS'Jadi?'
p328
aS'pejuangan siasia'
p329
aS'Dia bukannya beritahu kita'
p330
aS'Dia beritahu apa mereka boleh'
p331
aS'Dia dalam perjalanan Kita perlu'
p332
aS'Satu perkara lagi, Linc'
p333
aS'Lengahkan mereka!'
p334
aS'memerlukan lebih banyak masa'
p335
aS'mereka memberi kita'
p336
aS'tengah malam'
p337
aS'sehingga jam tiga pagi'
p338
aS'Saya tidak tahu Mungkin mereka'
p339
aS'Itu saja yang saya dapat Dengar'
p340
aS'Semuanya terpulang pada awak'
p341
aS'Lechero'
p342
aS'awak perlu tahu'
p343
aS'Saya rasa tukang gunting'
p344
aS'Lukakan saya?'
p345
aS'Tidak, silap saya Saya tidak'
p346
aS'paling cantik saya pernah lihat'
p347
aS'memerlukannya juga hari ini'
p348
aS'Tidak bolehlah berjalan'
p349
aS'kelihatan seperti "bootoo"'
p350
aS'Siapa ini?'
p351
aS'Hei!'
p352
aS'Saya mahu tahu apa awak sedang'
p353
aS'Saya tidak buat apaapa'
p354
aS'Dengar, kita di pihak'
p355
aS'Bertenang Simpan pisau itu'
p356
aS'Kita bukan di pihak yang sama'
p357
aS'keluar dari Sona, betul?'
p358
aS'Sudah tentu'
p359
aS'bantu dia lepaskan diri'
p360
aS'dengan dia pagi tadi'
p361
aS'Saya tidak tahu apa dia sudah'
p362
aS'Saya tahu dia siapa!'
p363
aS'orang mahu selamatkan'
p364
aS'anak saya untuk dapatkan dia'
p365
aS'bercakap dengan dia'
p366
aS'Ke mana, kawan?'
p367
aS'patung, sebuah monumen'
p368
aS'buku ini ada tulis begitu'
p369
aS'Ya, betul'
p370
aS'Awak mahu berseronok?'
p371
aS'Awak tidak apaapa?'
p372
aS'Untuk beritahu awak tidak perlu'
p373
aS'Memastikan saya tidak perlu juga'
p374
aS'tiket keluar dari tempat ini'
p375
aS'yang buat apa yang terpaksa'
p376
aS'Lagipun'
p377
aS'seorang kawan di dalam tempat ini'
p378
aS'Boardman, Ohio'
p379
aS'Australia Tempat'
p380
aS'Awak pernah ke sana?'
p381
aS'Kecilnya dunia'
p382
aS'lakukan di Panama?'
p383
aS'Awak polis itu, bukan?'
p384
aS'perhatikan Scofield itu'
p385
aS'kelihatan seperti sudah kenal'
p386
aS'suara awak tadi'
p387
aS'sidang media itu'
p388
aS'Kecilnya dunia'
p389
aS'bawa dia keluar dari sini?'
p390
aS'Saya bukan dalam'
p391
aS'Bagaimana orangnya Scofield itu?'
p392
aS'Kenapa awak hendak tahu?'
p393
aS'Cuma hendak tahu saya berurusan'
p394
aS'Itu bergantung kepada kenapa'
p395
aS'Seperti saya katakan'
p396
aS'Perlukan seorang kawan'
p397
aS'Satu perkara tentang'
p398
aS'untuk orang yang dia sayangi,'
p399
aS'Tetapi dia akan musnahkan awak'
p400
aS'Saya boleh teka awak telah'
p401
aS'Apapun'
p402
aS'Awak tahu saya'
p403
aS'Tidak Awak datang kerana awak'
p404
aS'tentang Scofield,'
p405
aS'Kita sudah seri'
p406
aS'Itu saja yang berkenaan'
p407
aS'Saya tidak tahu itu, kawan'
p408
aS'menara jam di sini? Menara jam?'
p409
aS'Tidak, "senor"'
p410
aS'Tidak pernah'
p411
aS'Menara jam'
p412
aS'mereka memberi kita masa'
p413
aS'Jika ia berada pada jam 12'
p414
aS'kedudukan tiga pagi'
p415
aS'Sara'
p416
aS'LJ!'
p417
aS'LJ! Tidak!'
p418
aS'Mereka sudah bertindak'
p419
aS'Bila?'
p420
aS'Cuma saya tidak sempat sampai'
p421
aS'Mereka nampak baikbaik saja?'
p422
aS'Awak simpanlah itu'
p423
aS'dan berikanya kepada Sara'
p424
aS'Michael, kita boleh berjaya'
p425
aS'bersusahpayah letak awak'
p426
aS'mustahil untuk membebaskan awak'
p427
aS'Kita boleh berjaya'
p428
aS'Kawan awak, yang'
p429
aS'Awak cakap dialah sebab'
p430
aS'Maksudnya kita ada satu persamaan'
p431
aS'temui di luar sana itu'
p432
aS'Dialah sebab saya di dalam sini'
p433
aS'ditahan, kita tiada persamaan'
p434
aS'dengan memberitahu saya'
p435
aS'sangat berminat dengan awak'
p436
aS'Saya tidak ada masa'
p437
aS'Baik Begini'
p438
aS'masa di antara sini'
p439
aS'Pasifik menguruskan carter'
p440
aS'Menangkap ikan Melancong'
p441
aS'membayar sewa rumah'
p442
aS'saya ada bawa seseorang'
p443
aS'pencinta alam sekitar'
p444
aS'sampel air, ukuran'
p445
aS'Saya tidak tahu'
p446
aS'asalkan bayaran dibuat'
p447
aS'saya mendapat panggilan'
p448
aS'saya telah bawa orang itu'
p449
aS'Dan kemudian orangorang kerajaan'
p450
aS'dan bertanyakan soalan'
p451
aS'Jadi saya menyembunyikan diri,'
p452
aS'dan berpindah ke rumah'
p453
aS'Hinggalah'
p454
aS'Ya Dan saya akhirnya'
p455
aS'di mana orangorang'
p456
aS'dan cakap mereka akan'
p457
aS'Selepas itu, saya perlu bawa'
p458
aS'saya telah bawa orang itu'
p459
aS'buku yang abang awak ambil'
p460
aS'Saya ada menulis nota'
p461
aS'Koordinat, mercutanda'
p462
aS'saya dan cari lokasi tersebut'
p463
aS'Itu cerita yang menarik'
p464
aS'sangat berharga'
p465
aS'simpannya lebih lama'
p466
aS'memenuhi janji mereka'
p467
aS'Saya perlukan masa untuk'
p468
aS'saya adalah membawa awak'
p469
aS'Apa saja di antara'
p470
aS'adalah antara awak dan mereka'
p471
aS'Baik'
p472
aS'hendak lakukan ini?'
p473
aS'bagaimana tiada siapa'
p474
aS'Saya rasa saya pun'
p475
aS'Tebu sangat manis Mangga sangat'
p476
aS'Si penghibur rupanya'
p477
aS'Bukan sekarang Saya perlu'
p478
aS'sedikit untuk kami?'
p479
aS'perlukan bantuan'
p480
aS'Benar'
p481
aS'Mungkin awak sudah berjaya'
p482
aS'Maaf, bos'
p483
aS'tidak mahu diganggu'
p484
aS'ucapkan terima kasih'
p485
aS'Jika tidak keberatan,'
p486
aS'dilepaskan daripada'
p487
aS'Apa maksud awak?'
p488
aS'Dan saya tidak mahu'
p489
aS'di antara kesetiaan saya'
p490
aS'dan realiti mengelak'
p491
aS'Dan saya sudah lama berada'
p492
aS'apabila dominodomino'
p493
aS'orang baru yang selalunya akan'
p494
aS'Berhenti mengarut dan'
p495
aS'Tidak mahu!'
p496
aS'Saya bukan meminta awak'
p497
aS'Saya cuma meminta awak'
p498
aS'Seperti saya menjadi'
p499
aS'Baik'
p500
aS'terdengar suarasuara'
p501
aS'mampus dengan Lechero!"'
p502
aS'Saya tidak tahu siapa dia'
p503
aS'saya kenal wajah mereka'
p504
aS'lihat di dalam bilik ini'
p505
aS'kepentingan di sini'
p506
aS'untuk menjadi sesiapa pun'
p507
aS'awak akan dapat segalanya'
p508
aS'Saya harap kedudukan'
p509
aS'Apa saya telah berikan'
p510
aS'dengan hanya satu bantuan'
p511
aS'Awak akan kekal, sebagai'
p512
aS'untuk melaporkan semula'
p513
aS'apabila saya tiada'
p514
aS'Baik'
p515
aS'Lebih baik daripada'
p516
aS'Awak tahu, agak menarik bagaimana'
p517
aS'dengan tempat penginapan'
p518
aS'Mungkin kerana awak merancang'
p519
aS'Seperti saya cakap'
p520
aS'Ini penghujung jalan'
p521
aS'Bagaimana dengan ini?'
p522
aS'Company mahu awak berada'
p523
aS'tetapi telah dituduh membunuh'
p524
aS'awak nampaknya ambil berat'
p525
aS'Saya perlu beritahu awak sesuatu'
p526
aS'lanjut tentang awak'
p527
aS'apa yang awak ada'
p528
aS'memutuskan awak'
p529
aS'dalam keadaan hidup daripada mati?'
p530
aS'apa saya katakan ini?'
p531
aS'lagi pil, kerana semua itu gila'
p532
aS'saya bunuh dia? Whistler itu?'
p533
aS'adakah pihak Company akan peduli?'
p534
aS'lakukan kepada awak?'
p535
aS'Hatihati, Alex'
p536
aS'Ya?'
p537
aS'Tidak sesibuk yang saya harapkan'
p538
aS'Saya mungkin akan'
p539
aS'jika berada di tempat awak'
p540
aS'Jangan cuba buat begitu lagi'
p541
aS'Ya'
p542
aS'Hello, Mira'
p543
aS'Awak masih tentang serangan itu?'
p544
aS'Aku terasa lemas'
p545
aS'Betul, awak berada di atas kapal,'
p546
aS'Ia tenggelam disebabkan pengganas'
p547
aS'badan aku?'
p548
aS'Kami tak dapat selamatkannya'
p549
aS'yang masih berfungsi'
p550
aS'untuk awak'
p551
aS'Tapi fikiran awak, jiwa awak'
p552
aS'masih bersama'
p553
aS'Tenangkan dia'
p554
aS'Ya'
p555
aS'Sebuah mesin tak boleh mengetuai,'
p556
aS'Mesin tak boleh berfikir, faham'
p557
aS'Tapi dengan minda manusia'
p558
aS'Mira boleh buat semua perkara itu,'
p559
aS'Penciptaan yang pertama'
p560
aS'sebaik saja dia dijalankan'
p561
aS'Kau mengurangkan'
p562
aS'Aku tak rasa, dia sebuah mesin'
p563
aS'Dan kejayaan untuk syarikat aku'
p564
aS'Aku sedang berada sasaran'
p565
aS'Cuba analisis dan laporkan'
p566
aS'Tapi aku menerima perubahan'
p567
aS'Sekarang, aku boleh buat'
p568
aS'Sesuatu yang aku tak tahu,'
p569
aS'Cuba dengar ini'
p570
aS'yang berumur 4 tahun'
p571
aS'lagu tidur itu'
p572
aS'bahasa Perancis'
p573
aS'Ada kotak isyarat di sini'
p574
aS'isyarat data'
p575
aS'di mana isyarat itu dihantar'
p576
aS'dalam pengawasan'
p577
aS'rangkaian keselamatan hotel'
p578
aS'Saya menerima banyak imbasan'
p579
aS'Di tingkat 43'
p580
aS'Ada seseorang perhatikan dia'
p581
aS'Apa yang kau mahu'
p582
aS'Aku rasa, lebih kurang apa yang'
p583
aS'73% daripada dunia ini telah berubah'
p584
aS'Kau mahu ketinggalan?'
p585
aS'menerima perubahan itu'
p586
aS'mengenai risiko'
p587
aS'mengganggu jiwa manusia'
p588
aS'aku rasa kau sudah silap'
p589
aS'Satu tembakan dilepaskan'
p590
aS'Dua minit lagi, Major'
p591
aS'Biar aku pergi'
p592
aS'Major, tunggu!'
p593
aS'dari pesaing kau'
p594
aS'bekerjasama dengan robot opera'
p595
aS'Itulah maksud aku'
p596
aS'Mulakan pengodaman'
p597
aS'Jangan biarkan aku mati'
p598
aS'Tolong'
p599
aS'Bekerjasama dengan Hanka Robotik'
p600
aS'Kau tak apaapa?'
p601
aS'Kau berbeza'
p602
aS'Itu cuma robot!'
p603
aS'Setakat ini, sangat sedikit'
p604
aS'di Hanka'
p605
aS'diubahsuai dengan teknologi'
p606
aS'menggodam dia?'
p607
aS'dapat digodam oleh dia'
p608
aS'Kau dapat apa?'
p609
aS'dia diubahsuai'
p610
aS'Mesin jentera hati'
p611
aS'Tapi, tenaganya akan berkurang'
p612
aS'Kau sudah diubahsuai'
p613
aS'Terima saja perubahan itu, Togusa'
p614
aS'Aku manusia sepenuhnya'
p615
aS'Ada maklumat mengenai'
p616
aS'Hanka sedang membuat imbasan'
p617
aS'Saya sudah berbincang'
p618
aS'Dia mahu laporan penuh'
p619
aS'Berikutan dari'
p620
aS'tiga ahli saintis Hanka'
p621
aS'di makmal syarikat'
p622
aS'ditembak'
p623
aS'oleh robotnya sendiri'
p624
aS'menunjukkan ia digodam'
p625
aS'oleh Robot Geisha pada Osmund'
p626
aS'di Hanka'
p627
aS'Satu mesej ditinggalkan'
p628
aS'oleh seseorang'
p629
aS'sebagai Kuze'
p630
aS'Kamu dan Ladriya perlu berjumpa dengan'
p631
aS'Major dan Batou'
p632
aS'Temukan cara untuk pulihkan'
p633
aS'Major!'
p634
aS'tak perlu bertindak'
p635
aS'Kalau tidak, ramai akan terbunuh'
p636
aS'dan juga tanggungjawab saya'
p637
aS'dan bunuh dia'
p638
aS'Bukan?'
p639
aS'satu alat senjata'
p640
aS'Apabila kita melihat keunikan kita'
p641
aS'barulah kita akan'
p642
aS'Kenapa dengan kau'
p643
aS'Jangan risau'
p644
aS'Kau pasti?'
p645
aS' Tepi'
p646
aS' Tepi!'
p647
aS'Hei, Batou!'
p648
aS' Terima kasih'
p649
aS'Kau tak suka manusia'
p650
aS'Tak tahulah Aku rasa kesian'
p651
aS'Ia suka kau sebab'
p652
aS'Kau tak ada perasaan'
p653
aS'Hei, Gabriel!'
p654
aS'Major, ini Gabriel'
p655
aS'Betul?'
p656
aS'Kau tak pernah cerita'
p657
aS'Apa?'
p658
aS' Aku tak berapa ingat'
p659
aS'Bagaimana dengan keluarga kau?'
p660
aS'semasa kami ingin ke negara ini'
p661
aS'di pelabuhan'
p662
aS'Aku rasa tenggelam'
p663
aS'dalam ingatan aku'
p664
aS'apaapa'
p665
aS'Setiap hari, aku selalu diganggu'
p666
aS'Lebih baik rasa tenang'
p667
aS'Tolong, buka dan tutup'
p668
aS'pada sistem dalaman'
p669
aS'awak perlu reka dengan lebih baik'
p670
aS' Baik Saya tak rasa apaapa'
p671
aS'Di dalam itu'
p672
aS'tapi ia boleh diatasi'
p673
aS' Ya'
p674
aS'Dua kali ia berlaku hari ini'
p675
aS' Duadua'
p676
aS'Awak pernah memuat turun'
p677
aS'Tak, buang saja daripada saya'
p678
aS'Nama saya Major Mary Killian'
p679
aS'Sudah selesai'
p680
aS' Apa itu?'
p681
aS'seperti bayangbayang'
p682
aS'Bagaimana awak tahu'
p683
aS'Kerosakan itu'
p684
aS'pada seluruh kod awak'
p685
aS'Fikiran awak, keputusan awak'
p686
aS'hanya untuk manusia'
p687
aS'Orang nampak awak'
p688
aS'Semua orang di sekeliling saya'
p689
aS'Seolaholah mereka disambungkan'
p690
aS'Seperti saya tak ada masa silam'
p691
aS'Dan semakin lama awak'
p692
aS'Tolong, buka dan tutup'
p693
aS'seolaholah ia menentukan kita, tapi'
p694
aS'Apa yang kita buat,'
p695
aS'Saya sibuk'
p696
aS'Awak sudah selesai?'
p697
aS'Robot Geisha ini dengan banyak'
p698
aS'Saya tak tembak dia'
p699
aS'Ini akan mengambil masa'
p700
aS'Saya perlu jalankan beratusratus'
p701
aS'Kami tak ada masa'
p702
aS'dengan Hanka'
p703
aS'untuk penggodaman otak'
p704
aS'Tak ada'
p705
aS'setelah ia dihantar'
p706
aS'apa yang dia ingin buat'
p707
aS'Jadi, saya perlu jalankan'
p708
aS'Awak tak boleh jalankan Deep Dive'
p709
aS'Saya tahu'
p710
aS'letakkan perangkap dalam dirinya'
p711
aS'menyebarkan virus'
p712
aS'Kau boleh mendedahkan minda kau'
p713
aS'Kau akan terbongkar'
p714
aS'ke dalam ingatannya'
p715
aS'untuk mencari Kuze'
p716
aS'Dan tidak terkawal'
p717
aS'Kalau kau nampak kod bahaya,'
p718
aS'Kenapa kau berpeluh?'
p719
aS'Sambungan minda kepada Major,'
p720
aS'dan terdedah'
p721
aS'untuk memuat turun data'
p722
aS'Saya berikan keizinan'
p723
aS'Keluarkan dia'
p724
aS' Saya cuba, tapi dia sedang digodam'
p725
aS'Sekarang!'
p726
aS'Aku tahu di mana dia'
p727
aS'Bersenjata dan diubahsuai'
p728
aS'Aku akan uruskan'
p729
aS'di kelab malam ini'
p730
aS'Memanglah'
p731
aS'Kenapa aku tak berasa terkejut?'
p732
aS'Supaya aku boleh masuk bilik bawah tanah'
p733
aS'bukan nak cari masalah, bukan?'
p734
aS'dengan perempuan dan minum bir'
p735
aS' Saya sedang cari seseorang'
p736
aS'sebelum ini?'
p737
aS'kerja jentera di sini'
p738
aS'kerja jentera di sini'
p739
aS'Kenapa tak berseronok dengan kami?'
p740
aS'Aku sudah masuk'
p741
aS'apabila kau perlukan aku'
p742
aS'kawan awak bekerja di sini?'
p743
aS'kawan saya pernah bekerja di sini'
p744
aS'Kawan awak'
p745
aS'Batou'
p746
aS'Siapa yang buat'
p747
aS'Sangat ajaib'
p748
aS'Ini'
p749
aS'Jangan risau, sayang'
p750
aS'Dengar'
p751
aS'keluar masuk'
p752
aS'Kau dengar?'
p753
aS'Kalau kau tak jawab,'
p754
aS'Ladriya, kau masih berhubung'
p755
aS'Tak ada'
p756
aS'Saya jenis yang mudah bosan'
p757
aS'mungkin awak nak menari'
p758
aS'Kau cakap,'
p759
aS'Menari!'
p760
aS'saya bukan direka untuk menari'
p761
aS'Aku sedang menuju ke bilik belakang'
p762
aS'Jumpa aku di sana'
p763
aS'Mana Batou?'
p764
aS'Dia dalam keadaan baik'
p765
aS'dengan letupan itu'
p766
aS'di sana'
p767
aS'Dia sudah lama tunggu saya'
p768
aS'sistem saraf awak'
p769
aS'akan dinilai di Seksyen 9'
p770
aS'juga ada beberapa kesilapan'
p771
aS'Sejak bila?'
p772
aS'Ada sesuatu kesilapan yang'
p773
aS'Tak'
p774
aS'Awak berada di dalam kerangka'
p775
aS'Ia boleh membawa kesan'
p776
aS'Awak tak dibenarkan untuk Deep Dive'
p777
aS'Awak kecewa'
p778
aS'Awak bukan kebal'
p779
aS'tapi saya tak boleh lindungi fikiran awak'
p780
aS'Awak boleh nampak'
p781
aS'awak mampu melindunginya'
p782
aS'kepentingan awak, Mira'
p783
aS'suatu hari nanti'
p784
aS'kesunyian yang saya alami'
p785
aS'kau berada di sana'
p786
aS'aku angkat?'
p787
aS'Cakap baikbaik'
p788
aS'Ia lebih teliti'
p789
aS' Ada apa lagi?'
p790
aS' Ya?'
p791
aS'dan Xray'
p792
aS'aku boleh nampak macam kau'
p793
aS'kau akan terbiasa nanti'
p794
aS'kerana selamatkan badan aku'
p795
aS'kau masih selamat'
p796
a.